

Microchip MPLAB XC8 Assembler V2.46 build 20240104201356 
                                                                                               Thu Feb 27 21:29:48 2025

Microchip MPLAB XC8 C Compiler v2.46 (Free license) build 20240104201356 Og1 
     1                           	processor	18F4580
     2                           	fnconf	rparam,??,?,0
     3                           	pagewidth 120
     4                           	opt	flic
     5                           	psect	idataCOMRAM,global,class=CODE,delta=1,noexec
     6                           	psect	idataBANK0,global,class=CODE,delta=1,noexec
     7                           	psect	mediumconst,global,reloc=2,class=MEDIUMCONST,delta=1,noexec
     8                           	psect	cinit,global,reloc=2,class=CODE,delta=1
     9                           	psect	bssCOMRAM,global,class=COMRAM,space=1,delta=1,lowdata,noexec
    10                           	psect	dataCOMRAM,global,class=COMRAM,space=1,delta=1,lowdata,noexec
    11                           	psect	bssBANK0,global,class=BANK0,space=1,delta=1,lowdata,noexec
    12                           	psect	dataBANK0,global,class=BANK0,space=1,delta=1,lowdata,noexec
    13                           	psect	bssBANK1,global,class=BANK1,space=1,delta=1,lowdata,noexec
    14                           	psect	cstackCOMRAM,global,class=COMRAM,space=1,delta=1,lowdata,noexec
    15                           	psect	text0,global,reloc=2,class=CODE,delta=1
    16                           	psect	text1,global,reloc=2,class=CODE,delta=1
    17                           	psect	text2,global,reloc=2,class=CODE,delta=1
    18                           	psect	text3,global,reloc=2,class=CODE,delta=1
    19                           	psect	text4,global,reloc=2,class=CODE,delta=1
    20                           	psect	text5,global,reloc=2,class=CODE,delta=1
    21                           	psect	text6,global,reloc=2,class=CODE,delta=1
    22                           	psect	text7,global,reloc=2,class=CODE,delta=1
    23                           	psect	text8,global,reloc=2,class=CODE,delta=1,group=1
    24                           	psect	text9,global,reloc=2,class=CODE,delta=1,group=1
    25                           	psect	text10,global,reloc=2,class=CODE,delta=1,group=1
    26                           	psect	text11,global,reloc=2,class=CODE,delta=1
    27                           	psect	text12,global,reloc=2,class=CODE,delta=1
    28                           	psect	text13,global,reloc=2,class=CODE,delta=1,group=1
    29                           	psect	text14,global,reloc=2,class=CODE,delta=1,group=1
    30                           	psect	text15,global,reloc=2,class=CODE,delta=1
    31                           	psect	text16,global,reloc=2,class=CODE,delta=1
    32                           	psect	text17,global,reloc=2,class=CODE,delta=1
    33                           	psect	text18,global,reloc=2,class=CODE,delta=1
    34                           	psect	text19,global,reloc=2,class=CODE,delta=1
    35                           	psect	text20,global,reloc=2,class=CODE,delta=1
    36                           	psect	text21,global,reloc=2,class=CODE,delta=1
    37                           	psect	text22,global,reloc=2,class=CODE,delta=1
    38                           	psect	text23,global,reloc=2,class=CODE,delta=1
    39                           	psect	text24,global,reloc=2,class=CODE,delta=1
    40                           	psect	text25,global,reloc=2,class=CODE,delta=1
    41                           	psect	text26,global,reloc=2,class=CODE,delta=1
    42                           	psect	text27,global,reloc=2,class=CODE,delta=1
    43                           	psect	text28,global,reloc=2,class=CODE,delta=1
    44                           	psect	text29,global,reloc=2,class=CODE,delta=1
    45                           	psect	text30,global,reloc=2,class=CODE,delta=1
    46                           	psect	text31,global,reloc=2,class=CODE,delta=1
    47                           	psect	text32,global,reloc=2,class=CODE,delta=1
    48                           	psect	text33,global,reloc=2,class=CODE,delta=1
    49                           	psect	text34,global,reloc=2,class=CODE,delta=1
    50                           	psect	text35,global,reloc=2,class=CODE,delta=1
    51                           	psect	text36,global,reloc=2,class=CODE,delta=1
    52                           	psect	text37,global,reloc=2,class=CODE,delta=1
    53                           	psect	text38,global,reloc=2,class=CODE,delta=1
    54                           	psect	text39,global,reloc=2,class=CODE,delta=1
    55                           	psect	text40,global,reloc=2,class=CODE,delta=1
    56                           	psect	text41,global,reloc=2,class=CODE,delta=1
    57                           	psect	text42,global,reloc=2,class=CODE,delta=1
    58                           	psect	intsave_regs,global,class=BIGRAM,space=1,delta=1,noexec
    59                           	psect	rparam,global,class=COMRAM,space=1,delta=1,noexec
    60                           	psect	idloc,global,abs,ovrld,class=IDLOC,space=5,delta=1,noexec
    61                           	psect	config,global,abs,ovrld,class=CONFIG,space=4,delta=1,noexec
    62   000000                     
    63                           ; Version 2.20
    64                           ; Generated 12/02/2020 GMT
    65                           ; 
    66                           ; Copyright © 2020, Microchip Technology Inc. and its subsidiaries ("Microchip")
    67                           ; All rights reserved.
    68                           ; 
    69                           ; This software is developed by Microchip Technology Inc. and its subsidiaries ("Microch
      +                          ip").
    70                           ; 
    71                           ; Redistribution and use in source and binary forms, with or without modification, are
    72                           ; permitted provided that the following conditions are met:
    73                           ; 
    74                           ;     1. Redistributions of source code must retain the above copyright notice, this lis
      +                          t of
    75                           ;        conditions and the following disclaimer.
    76                           ; 
    77                           ;     2. Redistributions in binary form must reproduce the above copyright notice, this 
      +                          list
    78                           ;        of conditions and the following disclaimer in the documentation and/or other
    79                           ;        materials provided with the distribution.
    80                           ; 
    81                           ;     3. Microchip's name may not be used to endorse or promote products derived from th
      +                          is
    82                           ;        software without specific prior written permission.
    83                           ; 
    84                           ; THIS SOFTWARE IS PROVIDED BY MICROCHIP "AS IS" AND ANY EXPRESS OR IMPLIED WARRANTIES,
    85                           ; INCLUDING, BUT NOT LIMITED TO, THE IMPLIED WARRANTIES OF MERCHANTABILITY AND FITNESS F
      +                          OR
    86                           ; PURPOSE ARE DISCLAIMED.  IN NO EVENT SHALL MICROCHIP BE LIABLE FOR ANY DIRECT, INDIREC
      +                          T,
    87                           ; INCIDENTAL, SPECIAL, EXEMPLARY, OR CONSEQUENTIAL DAMAGES (INCLUDING BUT NOT LIMITED TO
    88                           ; PROCUREMENT OF SUBSTITUTE GOODS OR SERVICES; LOSS OF USE, DATA OR PROFITS; OR BUSINESS
    89                           ; INTERRUPTION) HOWSOEVER CAUSED AND ON ANY THEORY OF LIABILITY, WHETHER IN CONTRACT, ST
      +                          RICT
    90                           ; LIABILITY, OR TORT (INCLUDING NEGLIGENCE OR OTHERWISE) ARISING IN ANY WAY OUT OF THE U
      +                          SE OF
    91                           ; THIS SOFTWARE, EVEN IF ADVISED OF THE POSSIBILITY OF SUCH DAMAGE.
    92                           ; 
    93                           ; 
    94                           ; Code-generator required, PIC18F4580 Definitions
    95                           ; 
    96                           ; SFR Addresses
    97   000000                     
    98                           	psect	idataCOMRAM
    99   0012B9                     __pidataCOMRAM:
   100                           	callstack 0
   101                           
   102                           ;initializer for read_switches@once
   103   0012B9  01                 	db	1
   104                           
   105                           ;initializer for _flagER
   106   0012BA  01                 	db	1
   107                           
   108                           ;initializer for _flag
   109   0012BB  01                 	db	1
   110                           
   111                           	psect	idataBANK0
   112   001558                     __pidataBANK0:
   113                           	callstack 0
   114                           
   115                           ;initializer for _menu
   116   001558  56                 	db	86
   117   001559  69                 	db	105
   118   00155A  65                 	db	101
   119   00155B  77                 	db	119
   120   00155C  20                 	db	32
   121   00155D  6C                 	db	108
   122   00155E  6F                 	db	111
   123   00155F  67                 	db	103
   124   001560  00                 	db	0
   125   001561  00                 	db	0
   126   001562  00                 	db	0
   127   001563  00                 	db	0
   128   001564  00                 	db	0
   129   001565  00                 	db	0
   130   001566  00                 	db	0
   131   001567  00                 	db	0
   132   001568  43                 	db	67
   133   001569  6C                 	db	108
   134   00156A  65                 	db	101
   135   00156B  61                 	db	97
   136   00156C  72                 	db	114
   137   00156D  20                 	db	32
   138   00156E  6C                 	db	108
   139   00156F  6F                 	db	111
   140   001570  67                 	db	103
   141   001571  00                 	db	0
   142   001572  00                 	db	0
   143   001573  00                 	db	0
   144   001574  00                 	db	0
   145   001575  00                 	db	0
   146   001576  00                 	db	0
   147   001577  00                 	db	0
   148   001578  44                 	db	68
   149   001579  6F                 	db	111
   150   00157A  77                 	db	119
   151   00157B  6E                 	db	110
   152   00157C  6C                 	db	108
   153   00157D  6F                 	db	111
   154   00157E  61                 	db	97
   155   00157F  64                 	db	100
   156   001580  20                 	db	32
   157   001581  6C                 	db	108
   158   001582  6F                 	db	111
   159   001583  67                 	db	103
   160   001584  00                 	db	0
   161   001585  00                 	db	0
   162   001586  00                 	db	0
   163   001587  00                 	db	0
   164   001588  53                 	db	83
   165   001589  65                 	db	101
   166   00158A  74                 	db	116
   167   00158B  20                 	db	32
   168   00158C  74                 	db	116
   169   00158D  69                 	db	105
   170   00158E  6D                 	db	109
   171   00158F  65                 	db	101
   172   001590  00                 	db	0
   173   001591  00                 	db	0
   174   001592  00                 	db	0
   175   001593  00                 	db	0
   176   001594  00                 	db	0
   177   001595  00                 	db	0
   178   001596  00                 	db	0
   179   001597  00                 	db	0
   180                           
   181                           ;initializer for _gears
   182   001598  4F                 	db	79
   183   001599  4E                 	db	78
   184   00159A  00                 	db	0
   185   00159B  47                 	db	71
   186   00159C  4E                 	db	78
   187   00159D  00                 	db	0
   188   00159E  47                 	db	71
   189   00159F  31                 	db	49
   190   0015A0  00                 	db	0
   191   0015A1  47                 	db	71
   192   0015A2  32                 	db	50
   193   0015A3  00                 	db	0
   194   0015A4  47                 	db	71
   195   0015A5  33                 	db	51
   196   0015A6  00                 	db	0
   197   0015A7  47                 	db	71
   198   0015A8  34                 	db	52
   199   0015A9  00                 	db	0
   200   0015AA  47                 	db	71
   201   0015AB  35                 	db	53
   202   0015AC  00                 	db	0
   203   0015AD  47                 	db	71
   204   0015AE  52                 	db	82
   205   0015AF  00                 	db	0
   206   0015B0  43                 	db	67
   207   0015B1  5F                 	db	95
   208   0015B2  00                 	db	0
   209   0015B3  00                 	db	0
   210   0015B4  00                 	db	0
   211   0015B5  00                 	db	0
   212   000000                     _SSPADD	set	4040
   213   000000                     _SSPCON1	set	4038
   214   000000                     _RCREG	set	4014
   215   000000                     _TXREG	set	4013
   216   000000                     _SPBRG	set	4015
   217   000000                     _ADRESL	set	4035
   218   000000                     _ADRESH	set	4036
   219   000000                     _ACKSTAT	set	32302
   220   000000                     _CKE	set	32318
   221   000000                     _BRG16	set	32195
   222   000000                     _GODONE	set	32273
   223   000000                     _RBPU	set	32655
   224   000000                     _ADCON0	set	4034
   225   000000                     _PORTBbits	set	3969
   226   000000                     _TRISD	set	3989
   227   000000                     _ACKEN	set	32300
   228   000000                     _ACKDT	set	32301
   229   000000                     _RCEN	set	32299
   230   000000                     _RSEN	set	32297
   231   000000                     _PEN	set	32298
   232   000000                     _SEN	set	32296
   233   000000                     _SSPIF	set	31987
   234   000000                     _SMP	set	32319
   235   000000                     _TRISC4	set	31908
   236   000000                     _TRISC3	set	31907
   237   000000                     _RCIF	set	31989
   238   000000                     _CREN	set	32092
   239   000000                     _RX9	set	32094
   240   000000                     _BRGH	set	32098
   241   000000                     _SENDB	set	32099
   242   000000                     _SYNC	set	32100
   243   000000                     _TXEN	set	32101
   244   000000                     _TRISC6	set	31910
   245   000000                     _TRISC7	set	31911
   246   000000                     _GO	set	32273
   247   000000                     _ADON	set	32272
   248   000000                     _VCFG0	set	32268
   249   000000                     _VCFG1	set	32269
   250   000000                     _ADCS2	set	32258
   251   000000                     _ADCS1	set	32257
   252   000000                     _ADCS0	set	32256
   253   000000                     _ACQT0	set	32259
   254   000000                     _ACQT1	set	32260
   255   000000                     _ACQT2	set	32261
   256   000000                     _RD7	set	31775
   257   000000                     _RC0	set	31760
   258   000000                     _RC2	set	31762
   259   000000                     _PORTB	set	3969
   260   000000                     _RC1	set	31761
   261   000000                     _TRISB	set	3987
   262   000000                     _TRISC	set	3988
   263   000000                     _PORTD	set	3971
   264   000000                     _TRISD7	set	31919
   265   000000                     _ADCON1	set	4033
   266   000000                     _TXIF	set	31988
   267   000000                     _SPEN	set	32095
   268   000000                     _TX9	set	32102
   269   000000                     _ADFM	set	32263
   270   000000                     _BCLIF	set	32011
   271   000000                     _SSPBUF	set	4041
   272                           
   273                           	psect	mediumconst
   274   002EE0                     __pmediumconst:
   275                           	callstack 0
   276   002EE0  00                 	db	0
   277   002EE1                     STR_13:
   278   002EE1  23                 	db	35
   279   002EE2  20                 	db	32
   280   002EE3  20                 	db	32
   281   002EE4  20                 	db	32
   282   002EE5  20                 	db	32
   283   002EE6  20                 	db	32
   284   002EE7  54                 	db	84	;'T'
   285   002EE8  69                 	db	105	;'i'
   286   002EE9  6D                 	db	109	;'m'
   287   002EEA  65                 	db	101	;'e'
   288   002EEB  20                 	db	32
   289   002EEC  20                 	db	32
   290   002EED  20                 	db	32
   291   002EEE  20                 	db	32
   292   002EEF  20                 	db	32
   293   002EF0  20                 	db	32
   294   002EF1  20                 	db	32
   295   002EF2  20                 	db	32
   296   002EF3  45                 	db	69	;'E'
   297   002EF4  76                 	db	118	;'v'
   298   002EF5  65                 	db	101	;'e'
   299   002EF6  6E                 	db	110	;'n'
   300   002EF7  74                 	db	116	;'t'
   301   002EF8  20                 	db	32
   302   002EF9  20                 	db	32
   303   002EFA  20                 	db	32
   304   002EFB  20                 	db	32
   305   002EFC  20                 	db	32
   306   002EFD  20                 	db	32
   307   002EFE  20                 	db	32
   308   002EFF  53                 	db	83	;'S'
   309   002F00  70                 	db	112	;'p'
   310   002F01  65                 	db	101	;'e'
   311   002F02  65                 	db	101	;'e'
   312   002F03  64                 	db	100	;'d'
   313   002F04  00                 	db	0
   314   002F05                     STR_11:
   315   002F05  4E                 	db	78	;'N'
   316   002F06  6F                 	db	111	;'o'
   317   002F07  20                 	db	32
   318   002F08  6C                 	db	108	;'l'
   319   002F09  6F                 	db	111	;'o'
   320   002F0A  67                 	db	103	;'g'
   321   002F0B  73                 	db	115	;'s'
   322   002F0C  20                 	db	32
   323   002F0D  61                 	db	97	;'a'
   324   002F0E  76                 	db	118	;'v'
   325   002F0F  61                 	db	97	;'a'
   326   002F10  69                 	db	105	;'i'
   327   002F11  6C                 	db	108	;'l'
   328   002F12  61                 	db	97	;'a'
   329   002F13  62                 	db	98	;'b'
   330   002F14  6C                 	db	108	;'l'
   331   002F15  65                 	db	101	;'e'
   332   002F16  00                 	db	0
   333   002F17                     STR_5:
   334   002F17  20                 	db	32
   335   002F18  20                 	db	32
   336   002F19  20                 	db	32
   337   002F1A  20                 	db	32
   338   002F1B  20                 	db	32
   339   002F1C  20                 	db	32
   340   002F1D  20                 	db	32
   341   002F1E  20                 	db	32
   342   002F1F  20                 	db	32
   343   002F20  20                 	db	32
   344   002F21  20                 	db	32
   345   002F22  20                 	db	32
   346   002F23  20                 	db	32
   347   002F24  20                 	db	32
   348   002F25  20                 	db	32
   349   002F26  20                 	db	32
   350   002F27  00                 	db	0
   351   002F28                     STR_2:
   352   002F28  4E                 	db	78	;'N'
   353   002F29  4F                 	db	79	;'O'
   354   002F2A  20                 	db	32
   355   002F2B  4C                 	db	76	;'L'
   356   002F2C  4F                 	db	79	;'O'
   357   002F2D  47                 	db	71	;'G'
   358   002F2E  53                 	db	83	;'S'
   359   002F2F  20                 	db	32
   360   002F30  20                 	db	32
   361   002F31  20                 	db	32
   362   002F32  20                 	db	32
   363   002F33  20                 	db	32
   364   002F34  20                 	db	32
   365   002F35  20                 	db	32
   366   002F36  20                 	db	32
   367   002F37  20                 	db	32
   368   002F38  00                 	db	0
   369   002F39                     STR_7:
   370   002F39  41                 	db	65	;'A'
   371   002F3A  4C                 	db	76	;'L'
   372   002F3B  4C                 	db	76	;'L'
   373   002F3C  20                 	db	32
   374   002F3D  4C                 	db	76	;'L'
   375   002F3E  4F                 	db	79	;'O'
   376   002F3F  47                 	db	71	;'G'
   377   002F40  53                 	db	83	;'S'
   378   002F41  20                 	db	32
   379   002F42  20                 	db	32
   380   002F43  20                 	db	32
   381   002F44  20                 	db	32
   382   002F45  20                 	db	32
   383   002F46  20                 	db	32
   384   002F47  20                 	db	32
   385   002F48  20                 	db	32
   386   002F49  00                 	db	0
   387   002F4A                     STR_19:
   388   002F4A  20                 	db	32
   389   002F4B  48                 	db	72	;'H'
   390   002F4C  48                 	db	72	;'H'
   391   002F4D  3A                 	db	58	;':'
   392   002F4E  4D                 	db	77	;'M'
   393   002F4F  4D                 	db	77	;'M'
   394   002F50  3A                 	db	58	;':'
   395   002F51  53                 	db	83	;'S'
   396   002F52  53                 	db	83	;'S'
   397   002F53  20                 	db	32
   398   002F54  20                 	db	32
   399   002F55  20                 	db	32
   400   002F56  20                 	db	32
   401   002F57  20                 	db	32
   402   002F58  20                 	db	32
   403   002F59  20                 	db	32
   404   002F5A  00                 	db	0
   405   002F5B                     STR_8:
   406   002F5B  43                 	db	67	;'C'
   407   002F5C  4C                 	db	76	;'L'
   408   002F5D  45                 	db	69	;'E'
   409   002F5E  41                 	db	65	;'A'
   410   002F5F  52                 	db	82	;'R'
   411   002F60  45                 	db	69	;'E'
   412   002F61  44                 	db	68	;'D'
   413   002F62  20                 	db	32
   414   002F63  3A                 	db	58	;':'
   415   002F64  2D                 	db	45
   416   002F65  29                 	db	41
   417   002F66  20                 	db	32
   418   002F67  20                 	db	32
   419   002F68  20                 	db	32
   420   002F69  20                 	db	32
   421   002F6A  20                 	db	32
   422   002F6B  00                 	db	0
   423   002F6C                     STR_20:
   424   002F6C  54                 	db	84	;'T'
   425   002F6D  69                 	db	105	;'i'
   426   002F6E  6D                 	db	109	;'m'
   427   002F6F  65                 	db	101	;'e'
   428   002F70  20                 	db	32
   429   002F71  63                 	db	99	;'c'
   430   002F72  68                 	db	104	;'h'
   431   002F73  61                 	db	97	;'a'
   432   002F74  6E                 	db	110	;'n'
   433   002F75  67                 	db	103	;'g'
   434   002F76  65                 	db	101	;'e'
   435   002F77  64                 	db	100	;'d'
   436   002F78  20                 	db	32
   437   002F79  20                 	db	32
   438   002F7A  20                 	db	32
   439   002F7B  20                 	db	32
   440   002F7C  00                 	db	0
   441   002F7D                     STR_3:
   442   002F7D  41                 	db	65	;'A'
   443   002F7E  56                 	db	86	;'V'
   444   002F7F  41                 	db	65	;'A'
   445   002F80  49                 	db	73	;'I'
   446   002F81  4C                 	db	76	;'L'
   447   002F82  41                 	db	65	;'A'
   448   002F83  42                 	db	66	;'B'
   449   002F84  4C                 	db	76	;'L'
   450   002F85  45                 	db	69	;'E'
   451   002F86  20                 	db	32
   452   002F87  3A                 	db	58	;':'
   453   002F88  2D                 	db	45
   454   002F89  28                 	db	40
   455   002F8A  20                 	db	32
   456   002F8B  20                 	db	32
   457   002F8C  20                 	db	32
   458   002F8D  00                 	db	0
   459   002F8E                     STR_10:
   460   002F8E  54                 	db	84	;'T'
   461   002F8F  4F                 	db	79	;'O'
   462   002F90  20                 	db	32
   463   002F91  44                 	db	68	;'D'
   464   002F92  4F                 	db	79	;'O'
   465   002F93  57                 	db	87	;'W'
   466   002F94  4E                 	db	78	;'N'
   467   002F95  4C                 	db	76	;'L'
   468   002F96  4F                 	db	79	;'O'
   469   002F97  41                 	db	65	;'A'
   470   002F98  44                 	db	68	;'D'
   471   002F99  20                 	db	32
   472   002F9A  3A                 	db	58	;':'
   473   002F9B  2D                 	db	45
   474   002F9C  28                 	db	40
   475   002F9D  20                 	db	32
   476   002F9E  00                 	db	0
   477   002F9F                     STR_17:
   478   002F9F  4C                 	db	76	;'L'
   479   002FA0  4F                 	db	79	;'O'
   480   002FA1  47                 	db	71	;'G'
   481   002FA2  53                 	db	83	;'S'
   482   002FA3  20                 	db	32
   483   002FA4  44                 	db	68	;'D'
   484   002FA5  4F                 	db	79	;'O'
   485   002FA6  57                 	db	87	;'W'
   486   002FA7  4E                 	db	78	;'N'
   487   002FA8  4C                 	db	76	;'L'
   488   002FA9  4F                 	db	79	;'O'
   489   002FAA  41                 	db	65	;'A'
   490   002FAB  44                 	db	68	;'D'
   491   002FAC  45                 	db	69	;'E'
   492   002FAD  44                 	db	68	;'D'
   493   002FAE  20                 	db	32
   494   002FAF  00                 	db	0
   495   002FB0                     STR_18:
   496   002FB0  53                 	db	83	;'S'
   497   002FB1  55                 	db	85	;'U'
   498   002FB2  43                 	db	67	;'C'
   499   002FB3  43                 	db	67	;'C'
   500   002FB4  45                 	db	69	;'E'
   501   002FB5  53                 	db	83	;'S'
   502   002FB6  53                 	db	83	;'S'
   503   002FB7  46                 	db	70	;'F'
   504   002FB8  55                 	db	85	;'U'
   505   002FB9  4C                 	db	76	;'L'
   506   002FBA  4C                 	db	76	;'L'
   507   002FBB  59                 	db	89	;'Y'
   508   002FBC  20                 	db	32
   509   002FBD  3A                 	db	58	;':'
   510   002FBE  2D                 	db	45
   511   002FBF  29                 	db	41
   512   002FC0  00                 	db	0
   513   002FC1                     STR_21:
   514   002FC1  53                 	db	83	;'S'
   515   002FC2  75                 	db	117	;'u'
   516   002FC3  63                 	db	99	;'c'
   517   002FC4  63                 	db	99	;'c'
   518   002FC5  65                 	db	101	;'e'
   519   002FC6  73                 	db	115	;'s'
   520   002FC7  73                 	db	115	;'s'
   521   002FC8  66                 	db	102	;'f'
   522   002FC9  75                 	db	117	;'u'
   523   002FCA  6C                 	db	108	;'l'
   524   002FCB  6C                 	db	108	;'l'
   525   002FCC  79                 	db	121	;'y'
   526   002FCD  20                 	db	32
   527   002FCE  3A                 	db	58	;':'
   528   002FCF  2D                 	db	45
   529   002FD0  29                 	db	41
   530   002FD1  00                 	db	0
   531   002FD2                     STR_1:
   532   002FD2  20                 	db	32
   533   002FD3  20                 	db	32
   534   002FD4  54                 	db	84	;'T'
   535   002FD5  49                 	db	73	;'I'
   536   002FD6  4D                 	db	77	;'M'
   537   002FD7  45                 	db	69	;'E'
   538   002FD8  20                 	db	32
   539   002FD9  20                 	db	32
   540   002FDA  20                 	db	32
   541   002FDB  47                 	db	71	;'G'
   542   002FDC  45                 	db	69	;'E'
   543   002FDD  41                 	db	65	;'A'
   544   002FDE  52                 	db	82	;'R'
   545   002FDF  20                 	db	32
   546   002FE0  53                 	db	83	;'S'
   547   002FE1  50                 	db	80	;'P'
   548   002FE2  00                 	db	0
   549   002FE3                     STR_4:
   550   002FE3  23                 	db	35
   551   002FE4  20                 	db	32
   552   002FE5  54                 	db	84	;'T'
   553   002FE6  49                 	db	73	;'I'
   554   002FE7  4D                 	db	77	;'M'
   555   002FE8  45                 	db	69	;'E'
   556   002FE9  20                 	db	32
   557   002FEA  20                 	db	32
   558   002FEB  20                 	db	32
   559   002FEC  20                 	db	32
   560   002FED  20                 	db	32
   561   002FEE  45                 	db	69	;'E'
   562   002FEF  56                 	db	86	;'V'
   563   002FF0  20                 	db	32
   564   002FF1  53                 	db	83	;'S'
   565   002FF2  50                 	db	80	;'P'
   566   002FF3  00                 	db	0
   567   002FF4                     STR_12:
   568   002FF4  4C                 	db	76	;'L'
   569   002FF5  6F                 	db	111	;'o'
   570   002FF6  67                 	db	103	;'g'
   571   002FF7  73                 	db	115	;'s'
   572   002FF8  20                 	db	32
   573   002FF9  3A                 	db	58	;':'
   574   002FFA  00                 	db	0
   575   002FFB                     STR_22:
   576   002FFB  FF                 	db	-1
   577   002FFC  FF                 	db	-1
   578   002FFD  00                 	db	0
   579   002FFE  00                 	db	0	; dummy byte at the end
   580   000000                     
   581                           ; #config settings
   582                           
   583                           	psect	cinit
   584   001686                     __pcinit:
   585                           	callstack 0
   586   001686                     start_initialization:
   587                           	callstack 0
   588   001686                     __initialization:
   589                           	callstack 0
   590                           
   591                           ; Initialize objects allocated to BANK0 (94 bytes)
   592                           ; load TBLPTR registers with __pidataBANK0
   593   001686  0E58               	movlw	low __pidataBANK0
   594   001688  6EF6               	movwf	tblptrl,c
   595   00168A  0E15               	movlw	high __pidataBANK0
   596   00168C  6EF7               	movwf	tblptrh,c
   597   00168E  0E00               	movlw	low (__pidataBANK0 shr (0+16))
   598   001690  6EF8               	movwf	tblptru,c
   599   001692  EE00  F060         	lfsr	0,__pdataBANK0
   600   001696  EE10 F05E          	lfsr	1,94
   601   00169A                     copy_data0:
   602   00169A  0009               	tblrd		*+
   603   00169C  CFF5 FFEE          	movff	tablat,postinc0
   604   0016A0  50E5               	movf	postdec1,w,c
   605   0016A2  50E1               	movf	fsr1l,w,c
   606   0016A4  E1FA               	bnz	copy_data0
   607                           
   608                           ; Initialize objects allocated to COMRAM (3 bytes)
   609                           ; load TBLPTR registers with __pidataCOMRAM
   610   0016A6  0EB9               	movlw	low __pidataCOMRAM
   611   0016A8  6EF6               	movwf	tblptrl,c
   612   0016AA  0E12               	movlw	high __pidataCOMRAM
   613   0016AC  6EF7               	movwf	tblptrh,c
   614   0016AE  0E00               	movlw	low (__pidataCOMRAM shr (0+16))
   615   0016B0  6EF8               	movwf	tblptru,c
   616   0016B2  0009               	tblrd		*+	;fetch initializer
   617   0016B4  CFF5 F059          	movff	tablat,__pdataCOMRAM
   618   0016B8  0009               	tblrd		*+	;fetch initializer
   619   0016BA  CFF5 F05A          	movff	tablat,__pdataCOMRAM+1
   620   0016BE  0009               	tblrd		*+	;fetch initializer
   621   0016C0  CFF5 F05B          	movff	tablat,__pdataCOMRAM+2
   622                           
   623                           ; Clear objects allocated to BANK1 (160 bytes)
   624   0016C4  EE01  F000         	lfsr	0,__pbssBANK1
   625   0016C8  0EA0               	movlw	160
   626   0016CA                     clear_0:
   627   0016CA  6AEE               	clrf	postinc0,c
   628   0016CC  06E8               	decf	wreg,f,c
   629   0016CE  E1FD               	bnz	clear_0
   630                           
   631                           ; Clear objects allocated to BANK0 (9 bytes)
   632   0016D0  EE00  F0BE         	lfsr	0,__pbssBANK0
   633   0016D4  0E09               	movlw	9
   634   0016D6                     clear_1:
   635   0016D6  6AEE               	clrf	postinc0,c
   636   0016D8  06E8               	decf	wreg,f,c
   637   0016DA  E1FD               	bnz	clear_1
   638                           
   639                           ; Clear objects allocated to COMRAM (29 bytes)
   640   0016DC  EE00  F03C         	lfsr	0,__pbssCOMRAM
   641   0016E0  0E1D               	movlw	29
   642   0016E2                     clear_2:
   643   0016E2  6AEE               	clrf	postinc0,c
   644   0016E4  06E8               	decf	wreg,f,c
   645   0016E6  E1FD               	bnz	clear_2
   646   0016E8                     end_of_initialization:
   647                           	callstack 0
   648   0016E8                     __end_of__initialization:
   649                           	callstack 0
   650   0016E8  0E00               	movlw	low (__Lmediumconst shr (0+16))
   651   0016EA  6EF8               	movwf	tblptru,c
   652   0016EC  0100               	movlb	0
   653   0016EE  EF67  F00C         	goto	_main	;jump to C main() function
   654                           
   655                           	psect	bssCOMRAM
   656   00003C                     __pbssCOMRAM:
   657                           	callstack 0
   658   00003C                     set_time@new_time:
   659                           	callstack 0
   660   00003C                     	ds	6
   661   000042                     _delay:
   662                           	callstack 0
   663   000042                     	ds	4
   664   000046                     _clock_reg:
   665                           	callstack 0
   666   000046                     	ds	3
   667   000049                     set_time@blink_pos:
   668                           	callstack 0
   669   000049                     	ds	2
   670   00004B                     view_log@index:
   671                           	callstack 0
   672   00004B                     	ds	2
   673   00004D                     _adc_reg_val:
   674                           	callstack 0
   675   00004D                     	ds	2
   676   00004F                     read_switches@key:
   677                           	callstack 0
   678   00004F                     	ds	1
   679   000050                     set_time@once:
   680                           	callstack 0
   681   000050                     	ds	1
   682   000051                     set_time@blink_delay:
   683                           	callstack 0
   684   000051                     	ds	1
   685   000052                     _no_of_events:
   686                           	callstack 0
   687   000052                     	ds	1
   688   000053                     _address:
   689                           	callstack 0
   690   000053                     	ds	1
   691   000054                     _flag1:
   692                           	callstack 0
   693   000054                     	ds	1
   694   000055                     _gear_index:
   695                           	callstack 0
   696   000055                     	ds	1
   697   000056                     _menu_index:
   698                           	callstack 0
   699   000056                     	ds	1
   700   000057                     _key:
   701                           	callstack 0
   702   000057                     	ds	1
   703   000058                     _state:
   704                           	callstack 0
   705   000058                     	ds	1
   706                           
   707                           	psect	dataCOMRAM
   708   000059                     __pdataCOMRAM:
   709                           	callstack 0
   710   000059                     read_switches@once:
   711                           	callstack 0
   712   000059                     	ds	1
   713   00005A                     _flagER:
   714                           	callstack 0
   715   00005A                     	ds	1
   716   00005B                     _flag:
   717                           	callstack 0
   718   00005B                     	ds	1
   719                           
   720                           	psect	bssBANK0
   721   0000BE                     __pbssBANK0:
   722                           	callstack 0
   723   0000BE                     _time:
   724                           	callstack 0
   725   0000BE                     	ds	9
   726                           
   727                           	psect	dataBANK0
   728   000060                     __pdataBANK0:
   729                           	callstack 0
   730   000060                     _menu:
   731                           	callstack 0
   732   000060                     	ds	64
   733   0000A0                     _gears:
   734                           	callstack 0
   735   0000A0                     	ds	30
   736                           
   737                           	psect	bssBANK1
   738   000100                     __pbssBANK1:
   739                           	callstack 0
   740   000100                     _data:
   741                           	callstack 0
   742   000100                     	ds	160
   743                           
   744                           	psect	cstackCOMRAM
   745   000001                     __pcstackCOMRAM:
   746                           	callstack 0
   747   000001                     ?_read_adc:
   748                           	callstack 0
   749   000001                     ?___lwdiv:
   750                           	callstack 0
   751   000001                     ?___lwmod:
   752                           	callstack 0
   753   000001                     clcd_write@control_bit:
   754                           	callstack 0
   755   000001                     read_switches@detection_type:
   756                           	callstack 0
   757   000001                     putch@byte:
   758                           	callstack 0
   759   000001                     i2c_write@data:
   760                           	callstack 0
   761   000001                     ___lwdiv@dividend:
   762                           	callstack 0
   763   000001                     ___lwmod@dividend:
   764                           	callstack 0
   765                           
   766                           ; 2 bytes @ 0x0
   767   000001                     	ds	1
   768   000002                     clcd_write@byte:
   769                           	callstack 0
   770   000002                     write_ds1307@data:
   771                           	callstack 0
   772   000002                     read_ds1307@address:
   773                           	callstack 0
   774   000002                     read_external_EEPROM@address:
   775                           	callstack 0
   776   000002                     puts@s:
   777                           	callstack 0
   778                           
   779                           ; 2 bytes @ 0x1
   780   000002                     	ds	1
   781   000003                     ??_init_clcd:
   782   000003                     ??_read_adc:
   783   000003                     write_ds1307@address:
   784                           	callstack 0
   785   000003                     read_ds1307@data:
   786                           	callstack 0
   787   000003                     read_external_EEPROM@data:
   788                           	callstack 0
   789   000003                     clcd_print@data:
   790                           	callstack 0
   791   000003                     ___lwdiv@divisor:
   792                           	callstack 0
   793   000003                     ___lwmod@divisor:
   794                           	callstack 0
   795                           
   796                           ; 2 bytes @ 0x2
   797   000003                     	ds	1
   798   000004                     ??_event_reader:
   799   000004                     init_ds1307@dummy:
   800                           	callstack 0
   801                           
   802                           ; 1 bytes @ 0x3
   803   000004                     	ds	1
   804   000005                     clcd_print@addr:
   805                           	callstack 0
   806   000005                     ___lwmod@counter:
   807                           	callstack 0
   808   000005                     read_adc@reg_val:
   809                           	callstack 0
   810   000005                     ___lwdiv@quotient:
   811                           	callstack 0
   812                           
   813                           ; 2 bytes @ 0x4
   814   000005                     	ds	1
   815   000006                     ??_download_log:
   816   000006                     
   817                           ; 1 bytes @ 0x5
   818   000006                     	ds	1
   819   000007                     read_adc@channel:
   820                           	callstack 0
   821   000007                     ___lwdiv@counter:
   822                           	callstack 0
   823                           
   824                           ; 1 bytes @ 0x6
   825   000007                     	ds	1
   826   000008                     ?___xxtofl:
   827                           	callstack 0
   828   000008                     event_reader@read_address:
   829                           	callstack 0
   830   000008                     clcd_putch@addr:
   831                           	callstack 0
   832   000008                     write_external_EEPROM@data:
   833                           	callstack 0
   834   000008                     ___xxtofl@val:
   835                           	callstack 0
   836                           
   837                           ; 4 bytes @ 0x7
   838   000008                     	ds	1
   839   000009                     clcd_putch@data:
   840                           	callstack 0
   841   000009                     event_reader@i:
   842                           	callstack 0
   843   000009                     write_external_EEPROM@i:
   844                           	callstack 0
   845   000009                     download_log@log:
   846                           	callstack 0
   847                           
   848                           ; 11 bytes @ 0x8
   849   000009                     	ds	1
   850   00000A                     ??_display_main_menu:
   851   00000A                     ??_set_time:
   852                           
   853                           ; 1 bytes @ 0x9
   854   00000A                     	ds	1
   855   00000B                     write_external_EEPROM@address:
   856                           	callstack 0
   857   00000B                     event_reader@j:
   858                           	callstack 0
   859                           
   860                           ; 2 bytes @ 0xA
   861   00000B                     	ds	1
   862   00000C                     ??___xxtofl:
   863   00000C                     event_store@time:
   864                           	callstack 0
   865   00000C                     set_time@delay1:
   866                           	callstack 0
   867                           
   868                           ; 4 bytes @ 0xB
   869   00000C                     	ds	1
   870   00000D                     ??_view_log:
   871   00000D                     event_store@gear:
   872                           	callstack 0
   873                           
   874                           ; 1 bytes @ 0xC
   875   00000D                     	ds	1
   876   00000E                     event_store@speed:
   877                           	callstack 0
   878                           
   879                           ; 2 bytes @ 0xD
   880   00000E                     	ds	2
   881   000010                     event_store@address1:
   882                           	callstack 0
   883   000010                     set_time@buffer:
   884                           	callstack 0
   885   000010                     ___xxtofl@sign:
   886                           	callstack 0
   887   000010                     view_log@delay:
   888                           	callstack 0
   889                           
   890                           ; 4 bytes @ 0xF
   891   000010                     	ds	1
   892   000011                     event_store@address2:
   893                           	callstack 0
   894   000011                     ___xxtofl@exp:
   895                           	callstack 0
   896                           
   897                           ; 1 bytes @ 0x10
   898   000011                     	ds	1
   899   000012                     event_store@data_ew:
   900                           	callstack 0
   901   000012                     ___xxtofl@arg:
   902                           	callstack 0
   903                           
   904                           ; 4 bytes @ 0x11
   905   000012                     	ds	1
   906   000013                     event_store@i:
   907                           	callstack 0
   908                           
   909                           ; 2 bytes @ 0x12
   910   000013                     	ds	1
   911   000014                     download_log@delay1:
   912                           	callstack 0
   913                           
   914                           ; 4 bytes @ 0x13
   915   000014                     	ds	1
   916   000015                     event_store@j:
   917                           	callstack 0
   918                           
   919                           ; 2 bytes @ 0x14
   920   000015                     	ds	1
   921   000016                     ?___fldiv:
   922                           	callstack 0
   923   000016                     ___fldiv@b:
   924                           	callstack 0
   925                           
   926                           ; 4 bytes @ 0x15
   927   000016                     	ds	1
   928   000017                     event_store@i_195:
   929                           	callstack 0
   930                           
   931                           ; 2 bytes @ 0x16
   932   000017                     	ds	1
   933   000018                     download_log@delay1_228:
   934                           	callstack 0
   935                           
   936                           ; 4 bytes @ 0x17
   937   000018                     	ds	2
   938   00001A                     ___fldiv@a:
   939                           	callstack 0
   940                           
   941                           ; 4 bytes @ 0x19
   942   00001A                     	ds	2
   943   00001C                     download_log@add:
   944                           	callstack 0
   945                           
   946                           ; 1 bytes @ 0x1B
   947   00001C                     	ds	1
   948   00001D                     download_log@index:
   949                           	callstack 0
   950                           
   951                           ; 2 bytes @ 0x1C
   952   00001D                     	ds	1
   953   00001E                     ??___fldiv:
   954                           
   955                           ; 1 bytes @ 0x1D
   956   00001E                     	ds	1
   957   00001F                     download_log@i:
   958                           	callstack 0
   959                           
   960                           ; 2 bytes @ 0x1E
   961   00001F                     	ds	3
   962   000022                     ___fldiv@rem:
   963                           	callstack 0
   964                           
   965                           ; 4 bytes @ 0x21
   966   000022                     	ds	4
   967   000026                     ___fldiv@sign:
   968                           	callstack 0
   969                           
   970                           ; 1 bytes @ 0x25
   971   000026                     	ds	1
   972   000027                     ___fldiv@new_exp:
   973                           	callstack 0
   974                           
   975                           ; 2 bytes @ 0x26
   976   000027                     	ds	2
   977   000029                     ___fldiv@grs:
   978                           	callstack 0
   979                           
   980                           ; 4 bytes @ 0x28
   981   000029                     	ds	4
   982   00002D                     ___fldiv@bexp:
   983                           	callstack 0
   984                           
   985                           ; 1 bytes @ 0x2C
   986   00002D                     	ds	1
   987   00002E                     ___fldiv@aexp:
   988                           	callstack 0
   989                           
   990                           ; 1 bytes @ 0x2D
   991   00002E                     	ds	1
   992   00002F                     ?___fltol:
   993                           	callstack 0
   994   00002F                     ___fltol@f1:
   995                           	callstack 0
   996                           
   997                           ; 4 bytes @ 0x2E
   998   00002F                     	ds	4
   999   000033                     ??___fltol:
  1000                           
  1001                           ; 1 bytes @ 0x32
  1002   000033                     	ds	4
  1003   000037                     ___fltol@sign1:
  1004                           	callstack 0
  1005                           
  1006                           ; 1 bytes @ 0x36
  1007   000037                     	ds	1
  1008   000038                     ___fltol@exp1:
  1009                           	callstack 0
  1010                           
  1011                           ; 1 bytes @ 0x37
  1012   000038                     	ds	1
  1013   000039                     ??_view_dashboard:
  1014                           
  1015                           ; 1 bytes @ 0x38
  1016   000039                     	ds	1
  1017   00003A                     ??_main:
  1018                           
  1019                           ; 1 bytes @ 0x39
  1020   00003A                     	ds	2
  1021                           
  1022 ;;
  1023 ;;Main: autosize = 0, tempsize = 2, incstack = 0, save=0
  1024 ;;
  1025 ;; *************** function _main *****************
  1026 ;; Defined at:
  1027 ;;		line 36 in file "main.c"
  1028 ;; Parameters:    Size  Location     Type
  1029 ;;		None
  1030 ;; Auto vars:     Size  Location     Type
  1031 ;;		None
  1032 ;; Return value:  Size  Location     Type
  1033 ;;                  1    wreg      void 
  1034 ;; Registers used:
  1035 ;;		wreg, fsr0l, fsr0h, fsr2l, fsr2h, status,2, status,0, tblptrl, tblptrh, tblptru, prodl, prodh, cstack
  1036 ;; Tracked objects:
  1037 ;;		On entry : 0/0
  1038 ;;		On exit  : 0/0
  1039 ;;		Unchanged: 0/0
  1040 ;; Data sizes:     COMRAM   BANK0   BANK1   BANK2   BANK3   BANK4   BANK5
  1041 ;;      Params:         0       0       0       0       0       0       0
  1042 ;;      Locals:         0       0       0       0       0       0       0
  1043 ;;      Temps:          2       0       0       0       0       0       0
  1044 ;;      Totals:         2       0       0       0       0       0       0
  1045 ;;Total ram usage:        2 bytes
  1046 ;; Hardware stack levels required when called: 7
  1047 ;; This function calls:
  1048 ;;		_clear_log
  1049 ;;		_display_main_menu
  1050 ;;		_download_log
  1051 ;;		_get_time
  1052 ;;		_init_config
  1053 ;;		_read_switches
  1054 ;;		_set_time
  1055 ;;		_view_dashboard
  1056 ;;		_view_log
  1057 ;; This function is called by:
  1058 ;;		Startup code after reset
  1059 ;; This function uses a non-reentrant model
  1060 ;;
  1061                           
  1062                           	psect	text0
  1063   0018CE                     __ptext0:
  1064                           	callstack 0
  1065   0018CE                     _main:
  1066                           	callstack 24
  1067   0018CE                     
  1068                           ;main.c: 37:     init_config();
  1069   0018CE  ECD8  F009         	call	_init_config	;wreg free
  1070   0018D2                     l94:
  1071                           
  1072                           ;main.c: 39:         get_time();
  1073   0018D2  EC25  F00C         	call	_get_time	;wreg free
  1074                           
  1075                           ;main.c: 40:         key = read_switches(1);
  1076   0018D6  0E01               	movlw	1
  1077   0018D8  ECEA  F00B         	call	_read_switches
  1078   0018DC  6E57               	movwf	_key^0,c
  1079                           
  1080                           ;main.c: 41:         switch (state) {
  1081   0018DE  EF89  F00C         	goto	l3210
  1082   0018E2                     l3196:
  1083                           
  1084                           ;main.c: 43:                 view_dashboard();
  1085   0018E2  EC66  F00F         	call	_view_dashboard	;wreg free
  1086                           
  1087                           ;main.c: 44:                 break;
  1088   0018E6  EF69  F00C         	goto	l94
  1089   0018EA                     l3198:
  1090                           
  1091                           ;main.c: 46:                 display_main_menu();
  1092   0018EA  EC0B  F00E         	call	_display_main_menu	;wreg free
  1093                           
  1094                           ;main.c: 47:                 break;
  1095   0018EE  EF69  F00C         	goto	l94
  1096   0018F2                     l3200:
  1097                           
  1098                           ;main.c: 49:                 view_log();
  1099   0018F2  ECEA  F010         	call	_view_log	;wreg free
  1100                           
  1101                           ;main.c: 50:                 break;
  1102   0018F6  EF69  F00C         	goto	l94
  1103   0018FA                     l3202:
  1104                           
  1105                           ;main.c: 52:                 download_log();
  1106   0018FA  EC99  F012         	call	_download_log	;wreg free
  1107                           
  1108                           ;main.c: 53:                 break;
  1109   0018FE  EF69  F00C         	goto	l94
  1110   001902                     l3204:
  1111                           
  1112                           ;main.c: 55:                 clear_log();
  1113   001902  EC79  F00B         	call	_clear_log	;wreg free
  1114                           
  1115                           ;main.c: 56:                 break;
  1116   001906  EF69  F00C         	goto	l94
  1117   00190A                     l3206:
  1118                           
  1119                           ;main.c: 58:                 set_time();
  1120   00190A  EC6B  F015         	call	_set_time	;wreg free
  1121                           
  1122                           ;main.c: 59:                 break;
  1123   00190E  EF69  F00C         	goto	l94
  1124   001912                     l3210:
  1125   001912  5058               	movf	_state^0,w,c
  1126   001914  6E3A               	movwf	??_main^0,c
  1127   001916  6A3B               	clrf	(??_main+1)^0,c
  1128                           
  1129                           ; Switch on 2 bytes has been partitioned into a top level switch of size 1, and 1 sub-sw
      +                          itches
  1130                           ; Switch size 1, requested type "simple"
  1131                           ; Number of cases is 1, Range of values is 0 to 0
  1132                           ; switch strategies available:
  1133                           ; Name         Instructions Cycles
  1134                           ; simple_byte            4     3 (average)
  1135                           ;	Chosen strategy is simple_byte
  1136   001918  503B               	movf	(??_main+1)^0,w,c
  1137   00191A  0A00               	xorlw	0	; case 0
  1138   00191C  B4D8               	btfsc	status,2,c
  1139   00191E  EF93  F00C         	goto	l3236
  1140   001922  EF69  F00C         	goto	l94
  1141   001926                     l3236:
  1142                           
  1143                           ; Switch size 1, requested type "simple"
  1144                           ; Number of cases is 6, Range of values is 0 to 5
  1145                           ; switch strategies available:
  1146                           ; Name         Instructions Cycles
  1147                           ; simple_byte           19    10 (average)
  1148                           ;	Chosen strategy is simple_byte
  1149   001926  503A               	movf	??_main^0,w,c
  1150   001928  0A00               	xorlw	0	; case 0
  1151   00192A  B4D8               	btfsc	status,2,c
  1152   00192C  EF71  F00C         	goto	l3196
  1153   001930  0A01               	xorlw	1	; case 1
  1154   001932  B4D8               	btfsc	status,2,c
  1155   001934  EF75  F00C         	goto	l3198
  1156   001938  0A03               	xorlw	3	; case 2
  1157   00193A  B4D8               	btfsc	status,2,c
  1158   00193C  EF79  F00C         	goto	l3200
  1159   001940  0A01               	xorlw	1	; case 3
  1160   001942  B4D8               	btfsc	status,2,c
  1161   001944  EF81  F00C         	goto	l3204
  1162   001948  0A07               	xorlw	7	; case 4
  1163   00194A  B4D8               	btfsc	status,2,c
  1164   00194C  EF7D  F00C         	goto	l3202
  1165   001950  0A01               	xorlw	1	; case 5
  1166   001952  B4D8               	btfsc	status,2,c
  1167   001954  EF85  F00C         	goto	l3206
  1168   001958  EF69  F00C         	goto	l94
  1169   00195C  EF00  F000         	goto	start
  1170   001960                     __end_of_main:
  1171                           	callstack 0
  1172                           
  1173 ;; *************** function _view_log *****************
  1174 ;; Defined at:
  1175 ;;		line 172 in file "main.c"
  1176 ;; Parameters:    Size  Location     Type
  1177 ;;		None
  1178 ;; Auto vars:     Size  Location     Type
  1179 ;;  delay           4   15[COMRAM] unsigned long 
  1180 ;; Return value:  Size  Location     Type
  1181 ;;                  1    wreg      void 
  1182 ;; Registers used:
  1183 ;;		wreg, fsr0l, fsr0h, fsr2l, fsr2h, status,2, status,0, tblptrl, tblptrh, tblptru, cstack
  1184 ;; Tracked objects:
  1185 ;;		On entry : 0/0
  1186 ;;		On exit  : 0/0
  1187 ;;		Unchanged: 0/0
  1188 ;; Data sizes:     COMRAM   BANK0   BANK1   BANK2   BANK3   BANK4   BANK5
  1189 ;;      Params:         0       0       0       0       0       0       0
  1190 ;;      Locals:         4       0       0       0       0       0       0
  1191 ;;      Temps:          3       0       0       0       0       0       0
  1192 ;;      Totals:         7       0       0       0       0       0       0
  1193 ;;Total ram usage:        7 bytes
  1194 ;; Hardware stack levels used: 1
  1195 ;; Hardware stack levels required when called: 5
  1196 ;; This function calls:
  1197 ;;		_clcd_print
  1198 ;;		_clcd_putch
  1199 ;;		_clcd_write
  1200 ;;		_event_reader
  1201 ;; This function is called by:
  1202 ;;		_main
  1203 ;; This function uses a non-reentrant model
  1204 ;;
  1205                           
  1206                           	psect	text1
  1207   0021D4                     __ptext1:
  1208                           	callstack 0
  1209   0021D4                     _view_log:
  1210                           	callstack 25
  1211   0021D4                     
  1212                           ;main.c: 174:     if (no_of_events == 0) {
  1213   0021D4  5052               	movf	_no_of_events^0,w,c
  1214   0021D6  A4D8               	btfss	status,2,c
  1215   0021D8  EFF0  F010         	goto	u2131
  1216   0021DC  EFF2  F010         	goto	u2130
  1217   0021E0                     u2131:
  1218   0021E0  EF2D  F011         	goto	l2960
  1219   0021E4                     u2130:
  1220   0021E4                     
  1221                           ;main.c: 175:         clcd_write(0x01, 0);
  1222   0021E4  0E00               	movlw	0
  1223   0021E6  6E01               	movwf	clcd_write@control_bit^0,c
  1224   0021E8  0E01               	movlw	1
  1225   0021EA  EC4C  F00A         	call	_clcd_write
  1226   0021EE                     
  1227                           ;main.c: 176:         clcd_print("NO LOGS         ", (0x80 + (0)));
  1228   0021EE  0E28               	movlw	low STR_2
  1229   0021F0  6E03               	movwf	clcd_print@data^0,c
  1230   0021F2  0E2F               	movlw	high STR_2
  1231   0021F4  6E04               	movwf	(clcd_print@data+1)^0,c
  1232   0021F6  0E80               	movlw	128
  1233   0021F8  6E05               	movwf	clcd_print@addr^0,c
  1234   0021FA  EC0D  F00B         	call	_clcd_print	;wreg free
  1235   0021FE                     
  1236                           ;main.c: 177:         clcd_print("AVAILABLE :-(   ", (0xC0 + (0)));
  1237   0021FE  0E7D               	movlw	low STR_3
  1238   002200  6E03               	movwf	clcd_print@data^0,c
  1239   002202  0E2F               	movlw	high STR_3
  1240   002204  6E04               	movwf	(clcd_print@data+1)^0,c
  1241   002206  0EC0               	movlw	192
  1242   002208  6E05               	movwf	clcd_print@addr^0,c
  1243   00220A  EC0D  F00B         	call	_clcd_print	;wreg free
  1244   00220E                     
  1245                           ;main.c: 178:         for (unsigned long int delay = 500000; delay--;);
  1246   00220E  0E20               	movlw	32
  1247   002210  6E10               	movwf	view_log@delay^0,c
  1248   002212  0EA1               	movlw	161
  1249   002214  6E11               	movwf	(view_log@delay+1)^0,c
  1250   002216  0E07               	movlw	7
  1251   002218  6E12               	movwf	(view_log@delay+2)^0,c
  1252   00221A  0E00               	movlw	0
  1253   00221C  6E13               	movwf	(view_log@delay+3)^0,c
  1254   00221E                     l2952:
  1255   00221E  0610               	decf	view_log@delay^0,f,c
  1256   002220  0E00               	movlw	0
  1257   002222  5A11               	subwfb	(view_log@delay+1)^0,f,c
  1258   002224  5A12               	subwfb	(view_log@delay+2)^0,f,c
  1259   002226  5A13               	subwfb	(view_log@delay+3)^0,f,c
  1260   002228  2810               	incf	view_log@delay^0,w,c
  1261   00222A  E10A               	bnz	u2141
  1262   00222C  2811               	incf	(view_log@delay+1)^0,w,c
  1263   00222E  E108               	bnz	u2141
  1264   002230  2812               	incf	(view_log@delay+2)^0,w,c
  1265   002232  E106               	bnz	u2141
  1266   002234  2813               	incf	(view_log@delay+3)^0,w,c
  1267   002236  A4D8               	btfss	status,2,c
  1268   002238  EF20  F011         	goto	u2141
  1269   00223C  EF22  F011         	goto	u2140
  1270   002240                     u2141:
  1271   002240  EF0F  F011         	goto	l2952
  1272   002244                     u2140:
  1273   002244                     
  1274                           ;main.c: 180:         state = e_main_menu;
  1275   002244  0E01               	movlw	1
  1276   002246  6E58               	movwf	_state^0,c
  1277                           
  1278                           ;main.c: 181:         flag = 1;
  1279   002248  0E01               	movlw	1
  1280   00224A  6E5B               	movwf	_flag^0,c
  1281   00224C                     
  1282                           ;main.c: 182:         clcd_write(0x01, 0);
  1283   00224C  0E00               	movlw	0
  1284   00224E  6E01               	movwf	clcd_write@control_bit^0,c
  1285   002250  0E01               	movlw	1
  1286   002252  EC4C  F00A         	call	_clcd_write
  1287   002256  EFBE  F011         	goto	l149
  1288   00225A                     l2960:
  1289                           
  1290                           ;main.c: 185:     static int index = 0;;main.c: 187:     if (flagER == 1) {
  1291   00225A  045A               	decf	_flagER^0,w,c
  1292   00225C  A4D8               	btfss	status,2,c
  1293   00225E  EF33  F011         	goto	u2151
  1294   002262  EF35  F011         	goto	u2150
  1295   002266                     u2151:
  1296   002266  EF39  F011         	goto	l2966
  1297   00226A                     u2150:
  1298   00226A                     
  1299                           ;main.c: 188:         event_reader();
  1300   00226A  EC26  F010         	call	_event_reader	;wreg free
  1301   00226E                     
  1302                           ;main.c: 189:         flagER = 0;
  1303   00226E  0E00               	movlw	0
  1304   002270  6E5A               	movwf	_flagER^0,c
  1305   002272                     l2966:
  1306                           
  1307                           ;main.c: 192:     clcd_print("# TIME     EV SP", (0x80 + (0)));
  1308   002272  0EE3               	movlw	low STR_4
  1309   002274  6E03               	movwf	clcd_print@data^0,c
  1310   002276  0E2F               	movlw	high STR_4
  1311   002278  6E04               	movwf	(clcd_print@data+1)^0,c
  1312   00227A  0E80               	movlw	128
  1313   00227C  6E05               	movwf	clcd_print@addr^0,c
  1314   00227E  EC0D  F00B         	call	_clcd_print	;wreg free
  1315   002282                     
  1316                           ;main.c: 194:     if (key == 1 && index > 0) {
  1317   002282  0457               	decf	_key^0,w,c
  1318   002284  A4D8               	btfss	status,2,c
  1319   002286  EF47  F011         	goto	u2161
  1320   00228A  EF49  F011         	goto	u2160
  1321   00228E                     u2161:
  1322   00228E  EF61  F011         	goto	l2976
  1323   002292                     u2160:
  1324   002292  BE4C               	btfsc	(view_log@index+1)^0,7,c
  1325   002294  EF54  F011         	goto	u2171
  1326   002298  504C               	movf	(view_log@index+1)^0,w,c
  1327   00229A  E108               	bnz	u2170
  1328   00229C  044B               	decf	view_log@index^0,w,c
  1329   00229E  A0D8               	btfss	status,0,c
  1330   0022A0  EF54  F011         	goto	u2171
  1331   0022A4  EF56  F011         	goto	u2170
  1332   0022A8                     u2171:
  1333   0022A8  EF61  F011         	goto	l2976
  1334   0022AC                     u2170:
  1335   0022AC                     
  1336                           ;main.c: 195:         index--;
  1337   0022AC  064B               	decf	view_log@index^0,f,c
  1338   0022AE  A0D8               	btfss	status,0,c
  1339   0022B0  064C               	decf	(view_log@index+1)^0,f,c
  1340   0022B2                     
  1341                           ;main.c: 196:         clcd_print("                ", (0xC0 + (0)));
  1342   0022B2  0E17               	movlw	low STR_5
  1343   0022B4  6E03               	movwf	clcd_print@data^0,c
  1344   0022B6  0E2F               	movlw	high STR_5
  1345   0022B8  6E04               	movwf	(clcd_print@data+1)^0,c
  1346   0022BA  0EC0               	movlw	192
  1347   0022BC  6E05               	movwf	clcd_print@addr^0,c
  1348   0022BE  EC0D  F00B         	call	_clcd_print	;wreg free
  1349   0022C2                     l2976:
  1350                           
  1351                           ;main.c: 199:     if (key == 2 && index < no_of_events - 1) {
  1352   0022C2  0E02               	movlw	2
  1353   0022C4  1857               	xorwf	_key^0,w,c
  1354   0022C6  A4D8               	btfss	status,2,c
  1355   0022C8  EF68  F011         	goto	u2181
  1356   0022CC  EF6A  F011         	goto	u2180
  1357   0022D0                     u2181:
  1358   0022D0  EF89  F011         	goto	l2984
  1359   0022D4                     u2180:
  1360   0022D4  0EFF               	movlw	255
  1361   0022D6  2452               	addwf	_no_of_events^0,w,c
  1362   0022D8  6E0D               	movwf	??_view_log^0,c
  1363   0022DA  6A0E               	clrf	(??_view_log+1)^0,c
  1364   0022DC  0EFF               	movlw	255
  1365   0022DE  220E               	addwfc	(??_view_log+1)^0,f,c
  1366   0022E0  500D               	movf	??_view_log^0,w,c
  1367   0022E2  5C4B               	subwf	view_log@index^0,w,c
  1368   0022E4  504C               	movf	(view_log@index+1)^0,w,c
  1369   0022E6  0A80               	xorlw	128
  1370   0022E8  6E0F               	movwf	(??_view_log+2)^0,c
  1371   0022EA  500E               	movf	(??_view_log+1)^0,w,c
  1372   0022EC  0A80               	xorlw	128
  1373   0022EE  580F               	subwfb	(??_view_log+2)^0,w,c
  1374   0022F0  B0D8               	btfsc	status,0,c
  1375   0022F2  EF7D  F011         	goto	u2191
  1376   0022F6  EF7F  F011         	goto	u2190
  1377   0022FA                     u2191:
  1378   0022FA  EF89  F011         	goto	l2984
  1379   0022FE                     u2190:
  1380   0022FE                     
  1381                           ;main.c: 200:         index++;
  1382   0022FE  4A4B               	infsnz	view_log@index^0,f,c
  1383   002300  2A4C               	incf	(view_log@index+1)^0,f,c
  1384   002302                     
  1385                           ;main.c: 201:         clcd_print("                ", (0xC0 + (0)));
  1386   002302  0E17               	movlw	low STR_5
  1387   002304  6E03               	movwf	clcd_print@data^0,c
  1388   002306  0E2F               	movlw	high STR_5
  1389   002308  6E04               	movwf	(clcd_print@data+1)^0,c
  1390   00230A  0EC0               	movlw	192
  1391   00230C  6E05               	movwf	clcd_print@addr^0,c
  1392   00230E  EC0D  F00B         	call	_clcd_print	;wreg free
  1393   002312                     l2984:
  1394                           
  1395                           ;main.c: 204:     if (key == 12) {
  1396   002312  0E0C               	movlw	12
  1397   002314  1857               	xorwf	_key^0,w,c
  1398   002316  A4D8               	btfss	status,2,c
  1399   002318  EF90  F011         	goto	u2201
  1400   00231C  EF92  F011         	goto	u2200
  1401   002320                     u2201:
  1402   002320  EFA1  F011         	goto	l2996
  1403   002324                     u2200:
  1404   002324                     
  1405                           ;main.c: 205:         state = e_main_menu;
  1406   002324  0E01               	movlw	1
  1407   002326  6E58               	movwf	_state^0,c
  1408   002328                     
  1409                           ;main.c: 206:         clcd_write(0x01, 0);
  1410   002328  0E00               	movlw	0
  1411   00232A  6E01               	movwf	clcd_write@control_bit^0,c
  1412   00232C  0E01               	movlw	1
  1413   00232E  EC4C  F00A         	call	_clcd_write
  1414   002332                     
  1415                           ;main.c: 207:         index = 0;
  1416   002332  0E00               	movlw	0
  1417   002334  6E4C               	movwf	(view_log@index+1)^0,c
  1418   002336  0E00               	movlw	0
  1419   002338  6E4B               	movwf	view_log@index^0,c
  1420   00233A                     
  1421                           ;main.c: 208:         flagER = 1;
  1422   00233A  0E01               	movlw	1
  1423   00233C  6E5A               	movwf	_flagER^0,c
  1424   00233E  EFBE  F011         	goto	l149
  1425   002342                     l2996:
  1426                           
  1427                           ;main.c: 212:     clcd_putch(index + '0', (0xC0 + (0)));
  1428   002342  0EC0               	movlw	192
  1429   002344  6E08               	movwf	clcd_putch@addr^0,c
  1430   002346  504B               	movf	view_log@index^0,w,c
  1431   002348  0F30               	addlw	48
  1432   00234A  ECA4  F009         	call	_clcd_putch
  1433   00234E                     
  1434                           ;main.c: 214:     clcd_print(data[index], (0xC0 + (2)));
  1435   00234E  C04B  F00D         	movff	view_log@index,??_view_log
  1436   002352  C04C  F00E         	movff	view_log@index+1,??_view_log+1
  1437   002356  3A0D               	swapf	??_view_log^0,f,c
  1438   002358  3A0E               	swapf	(??_view_log+1)^0,f,c
  1439   00235A  0EF0               	movlw	240
  1440   00235C  160E               	andwf	(??_view_log+1)^0,f,c
  1441   00235E  500D               	movf	??_view_log^0,w,c
  1442   002360  0B0F               	andlw	15
  1443   002362  120E               	iorwf	(??_view_log+1)^0,f,c
  1444   002364  0EF0               	movlw	240
  1445   002366  160D               	andwf	??_view_log^0,f,c
  1446   002368  0E00               	movlw	low _data
  1447   00236A  240D               	addwf	??_view_log^0,w,c
  1448   00236C  6E03               	movwf	clcd_print@data^0,c
  1449   00236E  0E01               	movlw	high _data
  1450   002370  200E               	addwfc	(??_view_log+1)^0,w,c
  1451   002372  6E04               	movwf	(clcd_print@data+1)^0,c
  1452   002374  0EC2               	movlw	194
  1453   002376  6E05               	movwf	clcd_print@addr^0,c
  1454   002378  EC0D  F00B         	call	_clcd_print	;wreg free
  1455   00237C                     l149:
  1456   00237C  0012               	return		;funcret
  1457   00237E                     __end_of_view_log:
  1458                           	callstack 0
  1459                           
  1460 ;; *************** function _event_reader *****************
  1461 ;; Defined at:
  1462 ;;		line 229 in file "main.c"
  1463 ;; Parameters:    Size  Location     Type
  1464 ;;		None
  1465 ;; Auto vars:     Size  Location     Type
  1466 ;;  j               2   10[COMRAM] unsigned short 
  1467 ;;  i               2    8[COMRAM] unsigned short 
  1468 ;;  read_address    1    7[COMRAM] unsigned char 
  1469 ;; Return value:  Size  Location     Type
  1470 ;;                  1    wreg      void 
  1471 ;; Registers used:
  1472 ;;		wreg, fsr2l, fsr2h, status,2, status,0, cstack
  1473 ;; Tracked objects:
  1474 ;;		On entry : 0/0
  1475 ;;		On exit  : 0/0
  1476 ;;		Unchanged: 0/0
  1477 ;; Data sizes:     COMRAM   BANK0   BANK1   BANK2   BANK3   BANK4   BANK5
  1478 ;;      Params:         0       0       0       0       0       0       0
  1479 ;;      Locals:         5       0       0       0       0       0       0
  1480 ;;      Temps:          4       0       0       0       0       0       0
  1481 ;;      Totals:         9       0       0       0       0       0       0
  1482 ;;Total ram usage:        9 bytes
  1483 ;; Hardware stack levels used: 1
  1484 ;; Hardware stack levels required when called: 4
  1485 ;; This function calls:
  1486 ;;		_read_external_EEPROM
  1487 ;; This function is called by:
  1488 ;;		_view_log
  1489 ;; This function uses a non-reentrant model
  1490 ;;
  1491                           
  1492                           	psect	text2
  1493   00204C                     __ptext2:
  1494                           	callstack 0
  1495   00204C                     _event_reader:
  1496                           	callstack 25
  1497   00204C                     
  1498                           ;main.c: 230:     char read_address = 0x00;
  1499   00204C  0E00               	movlw	0
  1500   00204E  6E08               	movwf	event_reader@read_address^0,c
  1501                           
  1502                           ;main.c: 231:     unsigned short i, j;;main.c: 233:     for (i = 0; i < no_of_events; i+
      +                          +) {
  1503   002050  0E00               	movlw	0
  1504   002052  6E0A               	movwf	(event_reader@i+1)^0,c
  1505   002054  0E00               	movlw	0
  1506   002056  6E09               	movwf	event_reader@i^0,c
  1507   002058  EFDB  F010         	goto	l2584
  1508   00205C                     l2554:
  1509                           
  1510                           ;main.c: 234:         for (j = 0; j < 14; j++) {
  1511   00205C  0E00               	movlw	0
  1512   00205E  6E0C               	movwf	(event_reader@j+1)^0,c
  1513   002060  0E00               	movlw	0
  1514   002062  6E0B               	movwf	event_reader@j^0,c
  1515   002064                     l2560:
  1516                           
  1517                           ;main.c: 235:             if (j == 2 || j == 5) {
  1518   002064  0E02               	movlw	2
  1519   002066  180B               	xorwf	event_reader@j^0,w,c
  1520   002068  100C               	iorwf	(event_reader@j+1)^0,w,c
  1521   00206A  B4D8               	btfsc	status,2,c
  1522   00206C  EF3A  F010         	goto	u1471
  1523   002070  EF3C  F010         	goto	u1470
  1524   002074                     u1471:
  1525   002074  EF46  F010         	goto	l2564
  1526   002078                     u1470:
  1527   002078  0E05               	movlw	5
  1528   00207A  180B               	xorwf	event_reader@j^0,w,c
  1529   00207C  100C               	iorwf	(event_reader@j+1)^0,w,c
  1530   00207E  A4D8               	btfss	status,2,c
  1531   002080  EF44  F010         	goto	u1481
  1532   002084  EF46  F010         	goto	u1480
  1533   002088                     u1481:
  1534   002088  EF63  F010         	goto	l2566
  1535   00208C                     u1480:
  1536   00208C                     l2564:
  1537                           
  1538                           ;main.c: 236:                 data[i][j] = ':';
  1539   00208C  C009  F004         	movff	event_reader@i,??_event_reader
  1540   002090  C00A  F005         	movff	event_reader@i+1,??_event_reader+1
  1541   002094  3A04               	swapf	??_event_reader^0,f,c
  1542   002096  3A05               	swapf	(??_event_reader+1)^0,f,c
  1543   002098  0EF0               	movlw	240
  1544   00209A  1605               	andwf	(??_event_reader+1)^0,f,c
  1545   00209C  5004               	movf	??_event_reader^0,w,c
  1546   00209E  0B0F               	andlw	15
  1547   0020A0  1205               	iorwf	(??_event_reader+1)^0,f,c
  1548   0020A2  0EF0               	movlw	240
  1549   0020A4  1604               	andwf	??_event_reader^0,f,c
  1550   0020A6  0E00               	movlw	low _data
  1551   0020A8  2404               	addwf	??_event_reader^0,w,c
  1552   0020AA  6E06               	movwf	(??_event_reader+2)^0,c
  1553   0020AC  0E01               	movlw	high _data
  1554   0020AE  2005               	addwfc	(??_event_reader+1)^0,w,c
  1555   0020B0  6E07               	movwf	(??_event_reader+3)^0,c
  1556   0020B2  500B               	movf	event_reader@j^0,w,c
  1557   0020B4  2406               	addwf	(??_event_reader+2)^0,w,c
  1558   0020B6  6ED9               	movwf	fsr2l,c
  1559   0020B8  500C               	movf	(event_reader@j+1)^0,w,c
  1560   0020BA  2007               	addwfc	(??_event_reader+3)^0,w,c
  1561   0020BC  6EDA               	movwf	fsr2h,c
  1562   0020BE  0E3A               	movlw	58
  1563   0020C0  6EDF               	movwf	indf2,c
  1564                           
  1565                           ;main.c: 237:             } else if (j == 8 || j == 11) {
  1566   0020C2  EFB2  F010         	goto	l2576
  1567   0020C6                     l2566:
  1568   0020C6  0E08               	movlw	8
  1569   0020C8  180B               	xorwf	event_reader@j^0,w,c
  1570   0020CA  100C               	iorwf	(event_reader@j+1)^0,w,c
  1571   0020CC  B4D8               	btfsc	status,2,c
  1572   0020CE  EF6B  F010         	goto	u1491
  1573   0020D2  EF6D  F010         	goto	u1490
  1574   0020D6                     u1491:
  1575   0020D6  EF77  F010         	goto	l2570
  1576   0020DA                     u1490:
  1577   0020DA  0E0B               	movlw	11
  1578   0020DC  180B               	xorwf	event_reader@j^0,w,c
  1579   0020DE  100C               	iorwf	(event_reader@j+1)^0,w,c
  1580   0020E0  A4D8               	btfss	status,2,c
  1581   0020E2  EF75  F010         	goto	u1501
  1582   0020E6  EF77  F010         	goto	u1500
  1583   0020EA                     u1501:
  1584   0020EA  EF94  F010         	goto	l2572
  1585   0020EE                     u1500:
  1586   0020EE                     l2570:
  1587                           
  1588                           ;main.c: 238:                 data[i][j] = ' ';
  1589   0020EE  C009  F004         	movff	event_reader@i,??_event_reader
  1590   0020F2  C00A  F005         	movff	event_reader@i+1,??_event_reader+1
  1591   0020F6  3A04               	swapf	??_event_reader^0,f,c
  1592   0020F8  3A05               	swapf	(??_event_reader+1)^0,f,c
  1593   0020FA  0EF0               	movlw	240
  1594   0020FC  1605               	andwf	(??_event_reader+1)^0,f,c
  1595   0020FE  5004               	movf	??_event_reader^0,w,c
  1596   002100  0B0F               	andlw	15
  1597   002102  1205               	iorwf	(??_event_reader+1)^0,f,c
  1598   002104  0EF0               	movlw	240
  1599   002106  1604               	andwf	??_event_reader^0,f,c
  1600   002108  0E00               	movlw	low _data
  1601   00210A  2404               	addwf	??_event_reader^0,w,c
  1602   00210C  6E06               	movwf	(??_event_reader+2)^0,c
  1603   00210E  0E01               	movlw	high _data
  1604   002110  2005               	addwfc	(??_event_reader+1)^0,w,c
  1605   002112  6E07               	movwf	(??_event_reader+3)^0,c
  1606   002114  500B               	movf	event_reader@j^0,w,c
  1607   002116  2406               	addwf	(??_event_reader+2)^0,w,c
  1608   002118  6ED9               	movwf	fsr2l,c
  1609   00211A  500C               	movf	(event_reader@j+1)^0,w,c
  1610   00211C  2007               	addwfc	(??_event_reader+3)^0,w,c
  1611   00211E  6EDA               	movwf	fsr2h,c
  1612   002120  0E20               	movlw	32
  1613   002122  6EDF               	movwf	indf2,c
  1614                           
  1615                           ;main.c: 239:             } else {
  1616   002124  EFB2  F010         	goto	l2576
  1617   002128                     l2572:
  1618                           
  1619                           ;main.c: 240:                 data[i][j] = read_external_EEPROM(read_address++);
  1620   002128  C009  F004         	movff	event_reader@i,??_event_reader
  1621   00212C  C00A  F005         	movff	event_reader@i+1,??_event_reader+1
  1622   002130  3A04               	swapf	??_event_reader^0,f,c
  1623   002132  3A05               	swapf	(??_event_reader+1)^0,f,c
  1624   002134  0EF0               	movlw	240
  1625   002136  1605               	andwf	(??_event_reader+1)^0,f,c
  1626   002138  5004               	movf	??_event_reader^0,w,c
  1627   00213A  0B0F               	andlw	15
  1628   00213C  1205               	iorwf	(??_event_reader+1)^0,f,c
  1629   00213E  0EF0               	movlw	240
  1630   002140  1604               	andwf	??_event_reader^0,f,c
  1631   002142  0E00               	movlw	low _data
  1632   002144  2404               	addwf	??_event_reader^0,w,c
  1633   002146  6E06               	movwf	(??_event_reader+2)^0,c
  1634   002148  0E01               	movlw	high _data
  1635   00214A  2005               	addwfc	(??_event_reader+1)^0,w,c
  1636   00214C  6E07               	movwf	(??_event_reader+3)^0,c
  1637   00214E  500B               	movf	event_reader@j^0,w,c
  1638   002150  2406               	addwf	(??_event_reader+2)^0,w,c
  1639   002152  6ED9               	movwf	fsr2l,c
  1640   002154  500C               	movf	(event_reader@j+1)^0,w,c
  1641   002156  2007               	addwfc	(??_event_reader+3)^0,w,c
  1642   002158  6EDA               	movwf	fsr2h,c
  1643   00215A  5008               	movf	event_reader@read_address^0,w,c
  1644   00215C  EC07  F00A         	call	_read_external_EEPROM
  1645   002160  6EDF               	movwf	indf2,c
  1646   002162  2A08               	incf	event_reader@read_address^0,f,c
  1647   002164                     l2576:
  1648                           
  1649                           ;main.c: 242:         }
  1650   002164  4A0B               	infsnz	event_reader@j^0,f,c
  1651   002166  2A0C               	incf	(event_reader@j+1)^0,f,c
  1652   002168  500C               	movf	(event_reader@j+1)^0,w,c
  1653   00216A  E109               	bnz	u1510
  1654   00216C  0E0E               	movlw	14
  1655   00216E  5C0B               	subwf	event_reader@j^0,w,c
  1656   002170  A0D8               	btfss	status,0,c
  1657   002172  EFBD  F010         	goto	u1511
  1658   002176  EFBF  F010         	goto	u1510
  1659   00217A                     u1511:
  1660   00217A  EF32  F010         	goto	l2560
  1661   00217E                     u1510:
  1662   00217E                     
  1663                           ;main.c: 243:         data[i][j] = '\0';
  1664   00217E  C009  F004         	movff	event_reader@i,??_event_reader
  1665   002182  C00A  F005         	movff	event_reader@i+1,??_event_reader+1
  1666   002186  3A04               	swapf	??_event_reader^0,f,c
  1667   002188  3A05               	swapf	(??_event_reader+1)^0,f,c
  1668   00218A  0EF0               	movlw	240
  1669   00218C  1605               	andwf	(??_event_reader+1)^0,f,c
  1670   00218E  5004               	movf	??_event_reader^0,w,c
  1671   002190  0B0F               	andlw	15
  1672   002192  1205               	iorwf	(??_event_reader+1)^0,f,c
  1673   002194  0EF0               	movlw	240
  1674   002196  1604               	andwf	??_event_reader^0,f,c
  1675   002198  0E00               	movlw	low _data
  1676   00219A  2404               	addwf	??_event_reader^0,w,c
  1677   00219C  6E06               	movwf	(??_event_reader+2)^0,c
  1678   00219E  0E01               	movlw	high _data
  1679   0021A0  2005               	addwfc	(??_event_reader+1)^0,w,c
  1680   0021A2  6E07               	movwf	(??_event_reader+3)^0,c
  1681   0021A4  500B               	movf	event_reader@j^0,w,c
  1682   0021A6  2406               	addwf	(??_event_reader+2)^0,w,c
  1683   0021A8  6ED9               	movwf	fsr2l,c
  1684   0021AA  500C               	movf	(event_reader@j+1)^0,w,c
  1685   0021AC  2007               	addwfc	(??_event_reader+3)^0,w,c
  1686   0021AE  6EDA               	movwf	fsr2h,c
  1687   0021B0  6ADF               	clrf	indf2,c
  1688   0021B2                     
  1689                           ;main.c: 244:     }
  1690   0021B2  4A09               	infsnz	event_reader@i^0,f,c
  1691   0021B4  2A0A               	incf	(event_reader@i+1)^0,f,c
  1692   0021B6                     l2584:
  1693   0021B6  5052               	movf	_no_of_events^0,w,c
  1694   0021B8  6E04               	movwf	??_event_reader^0,c
  1695   0021BA  6A05               	clrf	(??_event_reader+1)^0,c
  1696   0021BC  5004               	movf	??_event_reader^0,w,c
  1697   0021BE  5C09               	subwf	event_reader@i^0,w,c
  1698   0021C0  5005               	movf	(??_event_reader+1)^0,w,c
  1699   0021C2  580A               	subwfb	(event_reader@i+1)^0,w,c
  1700   0021C4  A0D8               	btfss	status,0,c
  1701   0021C6  EFE7  F010         	goto	u1521
  1702   0021CA  EFE9  F010         	goto	u1520
  1703   0021CE                     u1521:
  1704   0021CE  EF2E  F010         	goto	l2554
  1705   0021D2                     u1520:
  1706   0021D2  0012               	return		;funcret
  1707   0021D4                     __end_of_event_reader:
  1708                           	callstack 0
  1709                           
  1710 ;; *************** function _view_dashboard *****************
  1711 ;; Defined at:
  1712 ;;		line 64 in file "main.c"
  1713 ;; Parameters:    Size  Location     Type
  1714 ;;		None
  1715 ;; Auto vars:     Size  Location     Type
  1716 ;;		None
  1717 ;; Return value:  Size  Location     Type
  1718 ;;                  1    wreg      void 
  1719 ;; Registers used:
  1720 ;;		wreg, fsr0l, fsr0h, fsr2l, fsr2h, status,2, status,0, tblptrl, tblptrh, tblptru, prodl, prodh, cstack
  1721 ;; Tracked objects:
  1722 ;;		On entry : 0/0
  1723 ;;		On exit  : 0/0
  1724 ;;		Unchanged: 0/0
  1725 ;; Data sizes:     COMRAM   BANK0   BANK1   BANK2   BANK3   BANK4   BANK5
  1726 ;;      Params:         0       0       0       0       0       0       0
  1727 ;;      Locals:         0       0       0       0       0       0       0
  1728 ;;      Temps:          1       0       0       0       0       0       0
  1729 ;;      Totals:         1       0       0       0       0       0       0
  1730 ;;Total ram usage:        1 bytes
  1731 ;; Hardware stack levels used: 1
  1732 ;; Hardware stack levels required when called: 6
  1733 ;; This function calls:
  1734 ;;		___fldiv
  1735 ;;		___fltol
  1736 ;;		___lwdiv
  1737 ;;		___lwmod
  1738 ;;		___xxtofl
  1739 ;;		_clcd_print
  1740 ;;		_clcd_putch
  1741 ;;		_clcd_write
  1742 ;;		_display_time
  1743 ;;		_event_store
  1744 ;;		_read_adc
  1745 ;; This function is called by:
  1746 ;;		_main
  1747 ;; This function uses a non-reentrant model
  1748 ;;
  1749                           
  1750                           	psect	text3
  1751   001ECC                     __ptext3:
  1752                           	callstack 0
  1753   001ECC                     _view_dashboard:
  1754                           	callstack 24
  1755   001ECC                     
  1756                           ;main.c: 65:     clcd_print("  TIME   GEAR SP", (0x80 + (0)));
  1757   001ECC  0ED2               	movlw	low STR_1
  1758   001ECE  6E03               	movwf	clcd_print@data^0,c
  1759   001ED0  0E2F               	movlw	high STR_1
  1760   001ED2  6E04               	movwf	(clcd_print@data+1)^0,c
  1761   001ED4  0E80               	movlw	128
  1762   001ED6  6E05               	movwf	clcd_print@addr^0,c
  1763   001ED8  EC0D  F00B         	call	_clcd_print	;wreg free
  1764                           
  1765                           ;main.c: 66:     display_time();
  1766   001EDC  EC8F  F009         	call	_display_time	;wreg free
  1767   001EE0                     
  1768                           ;main.c: 67:     clcd_print(gears[gear_index], (0xC0 + (10)));
  1769   001EE0  5055               	movf	_gear_index^0,w,c
  1770   001EE2  0D03               	mullw	3
  1771   001EE4  50F3               	movf	243,w,c
  1772   001EE6  0FA0               	addlw	low _gears
  1773   001EE8  6E39               	movwf	??_view_dashboard^0,c
  1774   001EEA  C039  F003         	movff	??_view_dashboard,clcd_print@data
  1775   001EEE  6A04               	clrf	(clcd_print@data+1)^0,c
  1776   001EF0  0ECA               	movlw	202
  1777   001EF2  6E05               	movwf	clcd_print@addr^0,c
  1778   001EF4  EC0D  F00B         	call	_clcd_print	;wreg free
  1779   001EF8                     
  1780                           ;main.c: 69:     if (key == 3) {
  1781   001EF8  0E03               	movlw	3
  1782   001EFA  1857               	xorwf	_key^0,w,c
  1783   001EFC  A4D8               	btfss	status,2,c
  1784   001EFE  EF83  F00F         	goto	u1971
  1785   001F02  EF85  F00F         	goto	u1970
  1786   001F06                     u1971:
  1787   001F06  EF94  F00F         	goto	l2860
  1788   001F0A                     u1970:
  1789   001F0A                     
  1790                           ;main.c: 70:         gear_index = 8;
  1791   001F0A  0E08               	movlw	8
  1792   001F0C  6E55               	movwf	_gear_index^0,c
  1793   001F0E                     
  1794                           ;main.c: 71:         event_store(time, gears[gear_index], adc_reg_val);
  1795   001F0E  0EBE               	movlw	low _time
  1796   001F10  6E0C               	movwf	event_store@time^0,c
  1797   001F12  5055               	movf	_gear_index^0,w,c
  1798   001F14  0D03               	mullw	3
  1799   001F16  50F3               	movf	243,w,c
  1800   001F18  0FA0               	addlw	low _gears
  1801   001F1A  6E0D               	movwf	event_store@gear^0,c
  1802   001F1C  C04D  F00E         	movff	_adc_reg_val,event_store@speed
  1803   001F20  C04E  F00F         	movff	_adc_reg_val+1,event_store@speed+1
  1804   001F24  ECB5  F00E         	call	_event_store	;wreg free
  1805   001F28                     l2860:
  1806                           
  1807                           ;main.c: 73:     if (key == 1) {
  1808   001F28  0457               	decf	_key^0,w,c
  1809   001F2A  A4D8               	btfss	status,2,c
  1810   001F2C  EF9A  F00F         	goto	u1981
  1811   001F30  EF9C  F00F         	goto	u1980
  1812   001F34                     u1981:
  1813   001F34  EFB4  F00F         	goto	l2868
  1814   001F38                     u1980:
  1815   001F38                     
  1816                           ;main.c: 74:         if (gear_index < 7) {
  1817   001F38  0E07               	movlw	7
  1818   001F3A  6055               	cpfslt	_gear_index^0,c
  1819   001F3C  EFA2  F00F         	goto	u1991
  1820   001F40  EFA4  F00F         	goto	u1990
  1821   001F44                     u1991:
  1822   001F44  EFC8  F00F         	goto	l2876
  1823   001F48                     u1990:
  1824   001F48                     
  1825                           ;main.c: 75:             gear_index++;
  1826   001F48  2A55               	incf	_gear_index^0,f,c
  1827   001F4A                     l2866:
  1828                           
  1829                           ;main.c: 76:             event_store(time, gears[gear_index], adc_reg_val);
  1830   001F4A  0EBE               	movlw	low _time
  1831   001F4C  6E0C               	movwf	event_store@time^0,c
  1832   001F4E  5055               	movf	_gear_index^0,w,c
  1833   001F50  0D03               	mullw	3
  1834   001F52  50F3               	movf	243,w,c
  1835   001F54  0FA0               	addlw	low _gears
  1836   001F56  6E0D               	movwf	event_store@gear^0,c
  1837   001F58  C04D  F00E         	movff	_adc_reg_val,event_store@speed
  1838   001F5C  C04E  F00F         	movff	_adc_reg_val+1,event_store@speed+1
  1839   001F60  ECB5  F00E         	call	_event_store	;wreg free
  1840   001F64  EFC8  F00F         	goto	l2876
  1841   001F68                     l2868:
  1842   001F68  0E02               	movlw	2
  1843   001F6A  1857               	xorwf	_key^0,w,c
  1844   001F6C  A4D8               	btfss	status,2,c
  1845   001F6E  EFBB  F00F         	goto	u2001
  1846   001F72  EFBD  F00F         	goto	u2000
  1847   001F76                     u2001:
  1848   001F76  EFC8  F00F         	goto	l2876
  1849   001F7A                     u2000:
  1850   001F7A                     
  1851                           ;main.c: 79:         if (gear_index > 1) {
  1852   001F7A  0E01               	movlw	1
  1853   001F7C  6455               	cpfsgt	_gear_index^0,c
  1854   001F7E  EFC3  F00F         	goto	u2011
  1855   001F82  EFC5  F00F         	goto	u2010
  1856   001F86                     u2011:
  1857   001F86  EFC8  F00F         	goto	l2876
  1858   001F8A                     u2010:
  1859   001F8A                     
  1860                           ;main.c: 80:             gear_index--;
  1861   001F8A  0655               	decf	_gear_index^0,f,c
  1862   001F8C  EFA5  F00F         	goto	l2866
  1863   001F90                     l2876:
  1864                           
  1865                           ;main.c: 85:     adc_reg_val = read_adc(0x04) / 10.33;
  1866   001F90  0EAE               	movlw	174
  1867   001F92  6E1A               	movwf	___fldiv@a^0,c
  1868   001F94  0E47               	movlw	71
  1869   001F96  6E1B               	movwf	(___fldiv@a+1)^0,c
  1870   001F98  0E25               	movlw	37
  1871   001F9A  6E1C               	movwf	(___fldiv@a+2)^0,c
  1872   001F9C  0E41               	movlw	65
  1873   001F9E  6E1D               	movwf	(___fldiv@a+3)^0,c
  1874   001FA0  0E04               	movlw	4
  1875   001FA2  EC89  F00A         	call	_read_adc
  1876   001FA6  C001  F008         	movff	?_read_adc,___xxtofl@val
  1877   001FAA  C002  F009         	movff	?_read_adc+1,___xxtofl@val+1
  1878   001FAE  6A0A               	clrf	(___xxtofl@val+2)^0,c
  1879   001FB0  6A0B               	clrf	(___xxtofl@val+3)^0,c
  1880   001FB2  0E00               	movlw	0
  1881   001FB4  ECBF  F011         	call	___xxtofl
  1882   001FB8  C008  F016         	movff	?___xxtofl,___fldiv@b
  1883   001FBC  C009  F017         	movff	?___xxtofl+1,___fldiv@b+1
  1884   001FC0  C00A  F018         	movff	?___xxtofl+2,___fldiv@b+2
  1885   001FC4  C00B  F019         	movff	?___xxtofl+3,___fldiv@b+3
  1886   001FC8  EC9E  F013         	call	___fldiv	;wreg free
  1887   001FCC  C016  F02F         	movff	?___fldiv,___fltol@f1
  1888   001FD0  C017  F030         	movff	?___fldiv+1,___fltol@f1+1
  1889   001FD4  C018  F031         	movff	?___fldiv+2,___fltol@f1+2
  1890   001FD8  C019  F032         	movff	?___fldiv+3,___fltol@f1+3
  1891   001FDC  EC04  F00D         	call	___fltol	;wreg free
  1892   001FE0  C02F  F04D         	movff	?___fltol,_adc_reg_val
  1893   001FE4  C030  F04E         	movff	?___fltol+1,_adc_reg_val+1
  1894   001FE8                     
  1895                           ;main.c: 86:     clcd_putch((adc_reg_val / 10) + 48, (0xC0 + (14)));
  1896   001FE8  0ECE               	movlw	206
  1897   001FEA  6E08               	movwf	clcd_putch@addr^0,c
  1898   001FEC  C04D  F001         	movff	_adc_reg_val,___lwdiv@dividend
  1899   001FF0  C04E  F002         	movff	_adc_reg_val+1,___lwdiv@dividend+1
  1900   001FF4  0E00               	movlw	0
  1901   001FF6  6E04               	movwf	(___lwdiv@divisor+1)^0,c
  1902   001FF8  0E0A               	movlw	10
  1903   001FFA  6E03               	movwf	___lwdiv@divisor^0,c
  1904   001FFC  ECB0  F00B         	call	___lwdiv	;wreg free
  1905   002000  5001               	movf	?___lwdiv^0,w,c
  1906   002002  0F30               	addlw	48
  1907   002004  ECA4  F009         	call	_clcd_putch
  1908   002008                     
  1909                           ;main.c: 87:     clcd_putch((adc_reg_val % 10) + 48, (0xC0 + (15)));
  1910   002008  0ECF               	movlw	207
  1911   00200A  6E08               	movwf	clcd_putch@addr^0,c
  1912   00200C  C04D  F001         	movff	_adc_reg_val,___lwmod@dividend
  1913   002010  C04E  F002         	movff	_adc_reg_val+1,___lwmod@dividend+1
  1914   002014  0E00               	movlw	0
  1915   002016  6E04               	movwf	(___lwmod@divisor+1)^0,c
  1916   002018  0E0A               	movlw	10
  1917   00201A  6E03               	movwf	___lwmod@divisor^0,c
  1918   00201C  ECDB  F00A         	call	___lwmod	;wreg free
  1919   002020  5001               	movf	?___lwmod^0,w,c
  1920   002022  0F30               	addlw	48
  1921   002024  ECA4  F009         	call	_clcd_putch
  1922   002028                     
  1923                           ;main.c: 89:     if (key == 11) {
  1924   002028  0E0B               	movlw	11
  1925   00202A  1857               	xorwf	_key^0,w,c
  1926   00202C  A4D8               	btfss	status,2,c
  1927   00202E  EF1B  F010         	goto	u2021
  1928   002032  EF1D  F010         	goto	u2020
  1929   002036                     u2021:
  1930   002036  EF25  F010         	goto	l115
  1931   00203A                     u2020:
  1932   00203A                     
  1933                           ;main.c: 90:         state = e_main_menu;
  1934   00203A  0E01               	movlw	1
  1935   00203C  6E58               	movwf	_state^0,c
  1936   00203E                     
  1937                           ;main.c: 91:         key = 0xFF;
  1938   00203E  6857               	setf	_key^0,c
  1939   002040                     
  1940                           ;main.c: 92:         clcd_write(0x01, 0);
  1941   002040  0E00               	movlw	0
  1942   002042  6E01               	movwf	clcd_write@control_bit^0,c
  1943   002044  0E01               	movlw	1
  1944   002046  EC4C  F00A         	call	_clcd_write
  1945   00204A                     l115:
  1946   00204A  0012               	return		;funcret
  1947   00204C                     __end_of_view_dashboard:
  1948                           	callstack 0
  1949                           
  1950 ;; *************** function _read_adc *****************
  1951 ;; Defined at:
  1952 ;;		line 42 in file "adc.c"
  1953 ;; Parameters:    Size  Location     Type
  1954 ;;  channel         1    wreg     unsigned char 
  1955 ;; Auto vars:     Size  Location     Type
  1956 ;;  channel         1    6[COMRAM] unsigned char 
  1957 ;;  reg_val         2    4[COMRAM] unsigned short 
  1958 ;; Return value:  Size  Location     Type
  1959 ;;                  2    0[COMRAM] unsigned short 
  1960 ;; Registers used:
  1961 ;;		wreg, status,2, status,0
  1962 ;; Tracked objects:
  1963 ;;		On entry : 0/0
  1964 ;;		On exit  : 0/0
  1965 ;;		Unchanged: 0/0
  1966 ;; Data sizes:     COMRAM   BANK0   BANK1   BANK2   BANK3   BANK4   BANK5
  1967 ;;      Params:         2       0       0       0       0       0       0
  1968 ;;      Locals:         3       0       0       0       0       0       0
  1969 ;;      Temps:          2       0       0       0       0       0       0
  1970 ;;      Totals:         7       0       0       0       0       0       0
  1971 ;;Total ram usage:        7 bytes
  1972 ;; Hardware stack levels used: 1
  1973 ;; This function calls:
  1974 ;;		Nothing
  1975 ;; This function is called by:
  1976 ;;		_view_dashboard
  1977 ;; This function uses a non-reentrant model
  1978 ;;
  1979                           
  1980                           	psect	text4
  1981   001512                     __ptext4:
  1982                           	callstack 0
  1983   001512                     _read_adc:
  1984                           	callstack 29
  1985                           
  1986                           ;incstack = 0
  1987                           ;read_adc@channel stored from wreg
  1988   001512  6E07               	movwf	read_adc@channel^0,c
  1989   001514                     
  1990                           ;adc.c: 42: unsigned short read_adc(unsigned char channel);adc.c: 43: {;adc.c: 44:  unsi
      +                          gned short reg_val;;adc.c: 48:  ADCON0 = (ADCON0 & 0xC3) | (channel << 2);
  1991   001514  C007  F003         	movff	read_adc@channel,??_read_adc
  1992   001518  90D8               	bcf	status,0,c
  1993   00151A  3603               	rlcf	??_read_adc^0,f,c
  1994   00151C  90D8               	bcf	status,0,c
  1995   00151E  3603               	rlcf	??_read_adc^0,f,c
  1996   001520  50C2               	movf	194,w,c	;volatile
  1997   001522  0BC3               	andlw	195
  1998   001524  1003               	iorwf	??_read_adc^0,w,c
  1999   001526  6EC2               	movwf	194,c	;volatile
  2000   001528                     
  2001                           ;adc.c: 51:  GO = 1;
  2002   001528  82C2               	bsf	4034,1,c	;volatile
  2003   00152A                     l353:
  2004   00152A  B2C2               	btfsc	4034,1,c	;volatile
  2005   00152C  EF9A  F00A         	goto	u1461
  2006   001530  EF9C  F00A         	goto	u1460
  2007   001534                     u1461:
  2008   001534  EF95  F00A         	goto	l353
  2009   001538                     u1460:
  2010   001538                     
  2011                           ;adc.c: 53:  reg_val = (ADRESH << 8) | ADRESL;
  2012   001538  50C3               	movf	195,w,c	;volatile
  2013   00153A  CFC4 F003          	movff	4036,??_read_adc	;volatile
  2014   00153E  6A04               	clrf	(??_read_adc+1)^0,c
  2015   001540  C003  F004         	movff	??_read_adc,??_read_adc+1
  2016   001544  6A03               	clrf	??_read_adc^0,c
  2017   001546  1003               	iorwf	??_read_adc^0,w,c
  2018   001548  6E05               	movwf	read_adc@reg_val^0,c
  2019   00154A  5004               	movf	(??_read_adc+1)^0,w,c
  2020   00154C  6E06               	movwf	(read_adc@reg_val+1)^0,c
  2021   00154E                     
  2022                           ;adc.c: 55:  return reg_val;
  2023   00154E  C005  F001         	movff	read_adc@reg_val,?_read_adc
  2024   001552  C006  F002         	movff	read_adc@reg_val+1,?_read_adc+1
  2025   001556  0012               	return		;funcret
  2026   001558                     __end_of_read_adc:
  2027                           	callstack 0
  2028                           
  2029 ;; *************** function _event_store *****************
  2030 ;; Defined at:
  2031 ;;		line 96 in file "main.c"
  2032 ;; Parameters:    Size  Location     Type
  2033 ;;  time            1   11[COMRAM] PTR unsigned char 
  2034 ;;		 -> time(9), 
  2035 ;;  gear            1   12[COMRAM] PTR unsigned char 
  2036 ;;		 -> gears(30), 
  2037 ;;  speed           2   13[COMRAM] unsigned int 
  2038 ;; Auto vars:     Size  Location     Type
  2039 ;;  j               2   20[COMRAM] int 
  2040 ;;  i               2   18[COMRAM] int 
  2041 ;;  i               2   22[COMRAM] int 
  2042 ;;  data_ew         1   17[COMRAM] unsigned char 
  2043 ;;  address2        1   16[COMRAM] unsigned char 
  2044 ;;  address1        1   15[COMRAM] unsigned char 
  2045 ;; Return value:  Size  Location     Type
  2046 ;;                  1    wreg      void 
  2047 ;; Registers used:
  2048 ;;		wreg, fsr2l, fsr2h, status,2, status,0, prodl, prodh, cstack
  2049 ;; Tracked objects:
  2050 ;;		On entry : 0/0
  2051 ;;		On exit  : 0/0
  2052 ;;		Unchanged: 0/0
  2053 ;; Data sizes:     COMRAM   BANK0   BANK1   BANK2   BANK3   BANK4   BANK5
  2054 ;;      Params:         4       0       0       0       0       0       0
  2055 ;;      Locals:         9       0       0       0       0       0       0
  2056 ;;      Temps:          0       0       0       0       0       0       0
  2057 ;;      Totals:        13       0       0       0       0       0       0
  2058 ;;Total ram usage:       13 bytes
  2059 ;; Hardware stack levels used: 1
  2060 ;; Hardware stack levels required when called: 4
  2061 ;; This function calls:
  2062 ;;		___lwdiv
  2063 ;;		_read_external_EEPROM
  2064 ;;		_write_external_EEPROM
  2065 ;; This function is called by:
  2066 ;;		_view_dashboard
  2067 ;; This function uses a non-reentrant model
  2068 ;;
  2069                           
  2070                           	psect	text5
  2071   001D6A                     __ptext5:
  2072                           	callstack 0
  2073   001D6A                     _event_store:
  2074                           	callstack 25
  2075   001D6A                     
  2076                           ;main.c: 98:     no_of_events++;
  2077   001D6A  2A52               	incf	_no_of_events^0,f,c
  2078   001D6C                     
  2079                           ;main.c: 99:     if (no_of_events > 10) {
  2080   001D6C  0E0A               	movlw	10
  2081   001D6E  6452               	cpfsgt	_no_of_events^0,c
  2082   001D70  EFBC  F00E         	goto	u1401
  2083   001D74  EFBE  F00E         	goto	u1400
  2084   001D78                     u1401:
  2085   001D78  EFF9  F00E         	goto	l118
  2086   001D7C                     u1400:
  2087   001D7C                     
  2088                           ;main.c: 100:         no_of_events = 10;
  2089   001D7C  0E0A               	movlw	10
  2090   001D7E  6E52               	movwf	_no_of_events^0,c
  2091                           
  2092                           ;main.c: 101:         unsigned char address1 = 0x00;
  2093   001D80  0E00               	movlw	0
  2094   001D82  6E10               	movwf	event_store@address1^0,c
  2095                           
  2096                           ;main.c: 102:         unsigned char address2 = 10;
  2097   001D84  0E0A               	movlw	10
  2098   001D86  6E11               	movwf	event_store@address2^0,c
  2099                           
  2100                           ;main.c: 104:         for(int i=0;i < 9;i++)
  2101   001D88  0E00               	movlw	0
  2102   001D8A  6E14               	movwf	(event_store@i+1)^0,c
  2103   001D8C  0E00               	movlw	0
  2104   001D8E  6E13               	movwf	event_store@i^0,c
  2105   001D90                     l2488:
  2106                           
  2107                           ;main.c: 105:         {;main.c: 107:             for(int j = 0;j < 10;j++)
  2108   001D90  0E00               	movlw	0
  2109   001D92  6E16               	movwf	(event_store@j+1)^0,c
  2110   001D94  0E00               	movlw	0
  2111   001D96  6E15               	movwf	event_store@j^0,c
  2112   001D98                     l2494:
  2113                           
  2114                           ;main.c: 108:             {;main.c: 109:                 data_ew = read_external_EEPROM(
      +                          address2++);
  2115   001D98  5011               	movf	event_store@address2^0,w,c
  2116   001D9A  EC07  F00A         	call	_read_external_EEPROM
  2117   001D9E  6E12               	movwf	event_store@data_ew^0,c
  2118   001DA0  2A11               	incf	event_store@address2^0,f,c
  2119   001DA2                     
  2120                           ;main.c: 110:                 write_external_EEPROM(address1++,data_ew);
  2121   001DA2  C012  F008         	movff	event_store@data_ew,write_external_EEPROM@data
  2122   001DA6  5010               	movf	event_store@address1^0,w,c
  2123   001DA8  EC69  F00A         	call	_write_external_EEPROM
  2124   001DAC  2A10               	incf	event_store@address1^0,f,c
  2125   001DAE                     
  2126                           ;main.c: 111:             }
  2127   001DAE  4A15               	infsnz	event_store@j^0,f,c
  2128   001DB0  2A16               	incf	(event_store@j+1)^0,f,c
  2129   001DB2  BE16               	btfsc	(event_store@j+1)^0,7,c
  2130   001DB4  EFE5  F00E         	goto	u1411
  2131   001DB8  5016               	movf	(event_store@j+1)^0,w,c
  2132   001DBA  E109               	bnz	u1410
  2133   001DBC  0E0A               	movlw	10
  2134   001DBE  5C15               	subwf	event_store@j^0,w,c
  2135   001DC0  A0D8               	btfss	status,0,c
  2136   001DC2  EFE5  F00E         	goto	u1411
  2137   001DC6  EFE7  F00E         	goto	u1410
  2138   001DCA                     u1411:
  2139   001DCA  EFCC  F00E         	goto	l2494
  2140   001DCE                     u1410:
  2141   001DCE                     
  2142                           ;main.c: 112:         }
  2143   001DCE  4A13               	infsnz	event_store@i^0,f,c
  2144   001DD0  2A14               	incf	(event_store@i+1)^0,f,c
  2145   001DD2  BE14               	btfsc	(event_store@i+1)^0,7,c
  2146   001DD4  EFF5  F00E         	goto	u1421
  2147   001DD8  5014               	movf	(event_store@i+1)^0,w,c
  2148   001DDA  E109               	bnz	u1420
  2149   001DDC  0E09               	movlw	9
  2150   001DDE  5C13               	subwf	event_store@i^0,w,c
  2151   001DE0  A0D8               	btfss	status,0,c
  2152   001DE2  EFF5  F00E         	goto	u1421
  2153   001DE6  EFF7  F00E         	goto	u1420
  2154   001DEA                     u1421:
  2155   001DEA  EFC8  F00E         	goto	l2488
  2156   001DEE                     u1420:
  2157   001DEE                     
  2158                           ;main.c: 113:         address = 90;
  2159   001DEE  0E5A               	movlw	90
  2160   001DF0  6E53               	movwf	_address^0,c
  2161   001DF2                     l118:
  2162                           
  2163                           ;main.c: 115:     for (int i = 0; i < 8; i++) {
  2164   001DF2  0E00               	movlw	0
  2165   001DF4  6E18               	movwf	(event_store@i_195+1)^0,c
  2166   001DF6  0E00               	movlw	0
  2167   001DF8  6E17               	movwf	event_store@i_195^0,c
  2168   001DFA                     l2516:
  2169                           
  2170                           ;main.c: 116:         if (i != 2 && i != 5) {
  2171   001DFA  0E02               	movlw	2
  2172   001DFC  1817               	xorwf	event_store@i_195^0,w,c
  2173   001DFE  1018               	iorwf	(event_store@i_195+1)^0,w,c
  2174   001E00  B4D8               	btfsc	status,2,c
  2175   001E02  EF05  F00F         	goto	u1431
  2176   001E06  EF07  F00F         	goto	u1430
  2177   001E0A                     u1431:
  2178   001E0A  EF1B  F00F         	goto	l2524
  2179   001E0E                     u1430:
  2180   001E0E  0E05               	movlw	5
  2181   001E10  1817               	xorwf	event_store@i_195^0,w,c
  2182   001E12  1018               	iorwf	(event_store@i_195+1)^0,w,c
  2183   001E14  B4D8               	btfsc	status,2,c
  2184   001E16  EF0F  F00F         	goto	u1441
  2185   001E1A  EF11  F00F         	goto	u1440
  2186   001E1E                     u1441:
  2187   001E1E  EF1B  F00F         	goto	l2524
  2188   001E22                     u1440:
  2189   001E22                     
  2190                           ;main.c: 117:             write_external_EEPROM(address++, time[i]);
  2191   001E22  500C               	movf	event_store@time^0,w,c
  2192   001E24  2417               	addwf	event_store@i_195^0,w,c
  2193   001E26  6ED9               	movwf	fsr2l,c
  2194   001E28  6ADA               	clrf	fsr2h,c
  2195   001E2A  50DF               	movf	indf2,w,c
  2196   001E2C  6E08               	movwf	write_external_EEPROM@data^0,c
  2197   001E2E  5053               	movf	_address^0,w,c
  2198   001E30  EC69  F00A         	call	_write_external_EEPROM
  2199   001E34  2A53               	incf	_address^0,f,c
  2200   001E36                     l2524:
  2201                           
  2202                           ;main.c: 119:     }
  2203   001E36  4A17               	infsnz	event_store@i_195^0,f,c
  2204   001E38  2A18               	incf	(event_store@i_195+1)^0,f,c
  2205   001E3A  BE18               	btfsc	(event_store@i_195+1)^0,7,c
  2206   001E3C  EF29  F00F         	goto	u1451
  2207   001E40  5018               	movf	(event_store@i_195+1)^0,w,c
  2208   001E42  E109               	bnz	u1450
  2209   001E44  0E08               	movlw	8
  2210   001E46  5C17               	subwf	event_store@i_195^0,w,c
  2211   001E48  A0D8               	btfss	status,0,c
  2212   001E4A  EF29  F00F         	goto	u1451
  2213   001E4E  EF2B  F00F         	goto	u1450
  2214   001E52                     u1451:
  2215   001E52  EFFD  F00E         	goto	l2516
  2216   001E56                     u1450:
  2217   001E56                     
  2218                           ;main.c: 121:     write_external_EEPROM(address++, gears[gear_index][0]);
  2219   001E56  5055               	movf	_gear_index^0,w,c
  2220   001E58  0D03               	mullw	3
  2221   001E5A  50F3               	movf	243,w,c
  2222   001E5C  0FA0               	addlw	low _gears
  2223   001E5E  6ED9               	movwf	fsr2l,c
  2224   001E60  6ADA               	clrf	fsr2h,c
  2225   001E62  50DF               	movf	indf2,w,c
  2226   001E64  6E08               	movwf	write_external_EEPROM@data^0,c
  2227   001E66  5053               	movf	_address^0,w,c
  2228   001E68  EC69  F00A         	call	_write_external_EEPROM
  2229   001E6C  2A53               	incf	_address^0,f,c
  2230   001E6E                     
  2231                           ;main.c: 122:     write_external_EEPROM(address++, gears[gear_index][1]);
  2232   001E6E  5055               	movf	_gear_index^0,w,c
  2233   001E70  0D03               	mullw	3
  2234   001E72  50F3               	movf	243,w,c
  2235   001E74  0FA1               	addlw	low (_gears+1)
  2236   001E76  6ED9               	movwf	fsr2l,c
  2237   001E78  6ADA               	clrf	fsr2h,c
  2238   001E7A  50DF               	movf	indf2,w,c
  2239   001E7C  6E08               	movwf	write_external_EEPROM@data^0,c
  2240   001E7E  5053               	movf	_address^0,w,c
  2241   001E80  EC69  F00A         	call	_write_external_EEPROM
  2242   001E84  2A53               	incf	_address^0,f,c
  2243   001E86                     
  2244                           ;main.c: 124:     write_external_EEPROM(address++, (speed / 10) + '0');
  2245   001E86  C00E  F001         	movff	event_store@speed,___lwdiv@dividend
  2246   001E8A  C00F  F002         	movff	event_store@speed+1,___lwdiv@dividend+1
  2247   001E8E  0E00               	movlw	0
  2248   001E90  6E04               	movwf	(___lwdiv@divisor+1)^0,c
  2249   001E92  0E0A               	movlw	10
  2250   001E94  6E03               	movwf	___lwdiv@divisor^0,c
  2251   001E96  ECB0  F00B         	call	___lwdiv	;wreg free
  2252   001E9A  5001               	movf	?___lwdiv^0,w,c
  2253   001E9C  0F30               	addlw	48
  2254   001E9E  6E08               	movwf	write_external_EEPROM@data^0,c
  2255   001EA0  5053               	movf	_address^0,w,c
  2256   001EA2  EC69  F00A         	call	_write_external_EEPROM
  2257   001EA6  2A53               	incf	_address^0,f,c
  2258                           
  2259                           ;main.c: 125:     write_external_EEPROM(address++, (speed / 10) + '0');
  2260   001EA8  C00E  F001         	movff	event_store@speed,___lwdiv@dividend
  2261   001EAC  C00F  F002         	movff	event_store@speed+1,___lwdiv@dividend+1
  2262   001EB0  0E00               	movlw	0
  2263   001EB2  6E04               	movwf	(___lwdiv@divisor+1)^0,c
  2264   001EB4  0E0A               	movlw	10
  2265   001EB6  6E03               	movwf	___lwdiv@divisor^0,c
  2266   001EB8  ECB0  F00B         	call	___lwdiv	;wreg free
  2267   001EBC  5001               	movf	?___lwdiv^0,w,c
  2268   001EBE  0F30               	addlw	48
  2269   001EC0  6E08               	movwf	write_external_EEPROM@data^0,c
  2270   001EC2  5053               	movf	_address^0,w,c
  2271   001EC4  EC69  F00A         	call	_write_external_EEPROM
  2272   001EC8  2A53               	incf	_address^0,f,c
  2273   001ECA  0012               	return		;funcret
  2274   001ECC                     __end_of_event_store:
  2275                           	callstack 0
  2276                           
  2277 ;; *************** function _write_external_EEPROM *****************
  2278 ;; Defined at:
  2279 ;;		line 4 in file "at24c04.c"
  2280 ;; Parameters:    Size  Location     Type
  2281 ;;  address         1    wreg     unsigned char 
  2282 ;;  data            1    7[COMRAM] unsigned char 
  2283 ;; Auto vars:     Size  Location     Type
  2284 ;;  address         1   10[COMRAM] unsigned char 
  2285 ;;  i               2    8[COMRAM] unsigned int 
  2286 ;; Return value:  Size  Location     Type
  2287 ;;                  1    wreg      void 
  2288 ;; Registers used:
  2289 ;;		wreg, status,2, status,0, cstack
  2290 ;; Tracked objects:
  2291 ;;		On entry : 0/0
  2292 ;;		On exit  : 0/0
  2293 ;;		Unchanged: 0/0
  2294 ;; Data sizes:     COMRAM   BANK0   BANK1   BANK2   BANK3   BANK4   BANK5
  2295 ;;      Params:         1       0       0       0       0       0       0
  2296 ;;      Locals:         3       0       0       0       0       0       0
  2297 ;;      Temps:          0       0       0       0       0       0       0
  2298 ;;      Totals:         4       0       0       0       0       0       0
  2299 ;;Total ram usage:        4 bytes
  2300 ;; Hardware stack levels used: 1
  2301 ;; Hardware stack levels required when called: 2
  2302 ;; This function calls:
  2303 ;;		_i2c_start
  2304 ;;		_i2c_stop
  2305 ;;		_i2c_write
  2306 ;; This function is called by:
  2307 ;;		_event_store
  2308 ;; This function uses a non-reentrant model
  2309 ;;
  2310                           
  2311                           	psect	text6
  2312   0014D2                     __ptext6:
  2313                           	callstack 0
  2314   0014D2                     _write_external_EEPROM:
  2315                           	callstack 26
  2316                           
  2317                           ;incstack = 0
  2318                           ;write_external_EEPROM@address stored from wreg
  2319   0014D2  6E0B               	movwf	write_external_EEPROM@address^0,c
  2320   0014D4                     
  2321                           ;at24c04.c: 4: void write_external_EEPROM(unsigned char address, unsigned char data);at2
      +                          4c04.c: 5: {;at24c04.c: 6:  i2c_start();
  2322   0014D4  EC69  F009         	call	_i2c_start	;wreg free
  2323   0014D8                     
  2324                           ;at24c04.c: 7:  i2c_write(0xA0);
  2325   0014D8  0EA0               	movlw	160
  2326   0014DA  EC77  F009         	call	_i2c_write
  2327   0014DE                     
  2328                           ;at24c04.c: 8:  i2c_write(address);
  2329   0014DE  500B               	movf	write_external_EEPROM@address^0,w,c
  2330   0014E0  EC77  F009         	call	_i2c_write
  2331   0014E4                     
  2332                           ;at24c04.c: 9:  i2c_write(data);
  2333   0014E4  5008               	movf	write_external_EEPROM@data^0,w,c
  2334   0014E6  EC77  F009         	call	_i2c_write
  2335   0014EA                     
  2336                           ;at24c04.c: 10:  i2c_stop();
  2337   0014EA  EC6D  F009         	call	_i2c_stop	;wreg free
  2338   0014EE                     
  2339                           ;at24c04.c: 11:     for(unsigned int i=3000;i--;);
  2340   0014EE  0E0B               	movlw	11
  2341   0014F0  6E0A               	movwf	(write_external_EEPROM@i+1)^0,c
  2342   0014F2  0EB8               	movlw	184
  2343   0014F4  6E09               	movwf	write_external_EEPROM@i^0,c
  2344   0014F6                     l2398:
  2345   0014F6  0609               	decf	write_external_EEPROM@i^0,f,c
  2346   0014F8  A0D8               	btfss	status,0,c
  2347   0014FA  060A               	decf	(write_external_EEPROM@i+1)^0,f,c
  2348   0014FC  2809               	incf	write_external_EEPROM@i^0,w,c
  2349   0014FE  E106               	bnz	u1361
  2350   001500  280A               	incf	(write_external_EEPROM@i+1)^0,w,c
  2351   001502  A4D8               	btfss	status,2,c
  2352   001504  EF86  F00A         	goto	u1361
  2353   001508  EF88  F00A         	goto	u1360
  2354   00150C                     u1361:
  2355   00150C  EF7B  F00A         	goto	l2398
  2356   001510                     u1360:
  2357   001510  0012               	return		;funcret
  2358   001512                     __end_of_write_external_EEPROM:
  2359                           	callstack 0
  2360                           
  2361 ;; *************** function _display_time *****************
  2362 ;; Defined at:
  2363 ;;		line 429 in file "main.c"
  2364 ;; Parameters:    Size  Location     Type
  2365 ;;		None
  2366 ;; Auto vars:     Size  Location     Type
  2367 ;;		None
  2368 ;; Return value:  Size  Location     Type
  2369 ;;                  1    wreg      void 
  2370 ;; Registers used:
  2371 ;;		wreg, fsr0l, fsr0h, status,2, status,0, tblptrl, tblptrh, tblptru, cstack
  2372 ;; Tracked objects:
  2373 ;;		On entry : 0/0
  2374 ;;		On exit  : 0/0
  2375 ;;		Unchanged: 0/0
  2376 ;; Data sizes:     COMRAM   BANK0   BANK1   BANK2   BANK3   BANK4   BANK5
  2377 ;;      Params:         0       0       0       0       0       0       0
  2378 ;;      Locals:         0       0       0       0       0       0       0
  2379 ;;      Temps:          0       0       0       0       0       0       0
  2380 ;;      Totals:         0       0       0       0       0       0       0
  2381 ;;Total ram usage:        0 bytes
  2382 ;; Hardware stack levels used: 1
  2383 ;; Hardware stack levels required when called: 5
  2384 ;; This function calls:
  2385 ;;		_clcd_print
  2386 ;;		_get_time
  2387 ;; This function is called by:
  2388 ;;		_view_dashboard
  2389 ;; This function uses a non-reentrant model
  2390 ;;
  2391                           
  2392                           	psect	text7
  2393   00131E                     __ptext7:
  2394                           	callstack 0
  2395   00131E                     _display_time:
  2396                           	callstack 24
  2397   00131E                     
  2398                           ;main.c: 431:     get_time();
  2399   00131E  EC25  F00C         	call	_get_time	;wreg free
  2400   001322                     
  2401                           ;main.c: 432:     clcd_print(time, (0xC0 + (1)));
  2402   001322  0EBE               	movlw	low _time
  2403   001324  6E03               	movwf	clcd_print@data^0,c
  2404   001326  6A04               	clrf	(clcd_print@data+1)^0,c
  2405   001328  0EC1               	movlw	193
  2406   00132A  6E05               	movwf	clcd_print@addr^0,c
  2407   00132C  EC0D  F00B         	call	_clcd_print	;wreg free
  2408   001330  0012               	return		;funcret
  2409   001332                     __end_of_display_time:
  2410                           	callstack 0
  2411                           
  2412 ;; *************** function ___xxtofl *****************
  2413 ;; Defined at:
  2414 ;;		line 10 in file "C:\Program Files\Microchip\xc8\v2.46\pic\sources\c99\common\xxtofl.c"
  2415 ;; Parameters:    Size  Location     Type
  2416 ;;  sign            1    wreg     unsigned char 
  2417 ;;  val             4    7[COMRAM] long 
  2418 ;; Auto vars:     Size  Location     Type
  2419 ;;  sign            1   15[COMRAM] unsigned char 
  2420 ;;  arg             4   17[COMRAM] unsigned long 
  2421 ;;  exp             1   16[COMRAM] unsigned char 
  2422 ;; Return value:  Size  Location     Type
  2423 ;;                  4    7[COMRAM] unsigned char 
  2424 ;; Registers used:
  2425 ;;		wreg, status,2, status,0
  2426 ;; Tracked objects:
  2427 ;;		On entry : 0/0
  2428 ;;		On exit  : 0/0
  2429 ;;		Unchanged: 0/0
  2430 ;; Data sizes:     COMRAM   BANK0   BANK1   BANK2   BANK3   BANK4   BANK5
  2431 ;;      Params:         4       0       0       0       0       0       0
  2432 ;;      Locals:         6       0       0       0       0       0       0
  2433 ;;      Temps:          4       0       0       0       0       0       0
  2434 ;;      Totals:        14       0       0       0       0       0       0
  2435 ;;Total ram usage:       14 bytes
  2436 ;; Hardware stack levels used: 1
  2437 ;; This function calls:
  2438 ;;		Nothing
  2439 ;; This function is called by:
  2440 ;;		_view_dashboard
  2441 ;; This function uses a non-reentrant model
  2442 ;;
  2443                           
  2444                           	psect	text8
  2445   00237E                     __ptext8:
  2446                           	callstack 0
  2447   00237E                     ___xxtofl:
  2448                           	callstack 29
  2449                           
  2450                           ;incstack = 0
  2451                           ;___xxtofl@sign stored from wreg
  2452   00237E  6E10               	movwf	___xxtofl@sign^0,c
  2453   002380  5010               	movf	___xxtofl@sign^0,w,c
  2454   002382  B4D8               	btfsc	status,2,c
  2455   002384  EFC6  F011         	goto	u1871
  2456   002388  EFC8  F011         	goto	u1870
  2457   00238C                     u1871:
  2458   00238C  EFEA  F011         	goto	l1178
  2459   002390                     u1870:
  2460   002390  BE0B               	btfsc	(___xxtofl@val+3)^0,7,c
  2461   002392  EFCF  F011         	goto	u1880
  2462   002396  EFCD  F011         	goto	u1881
  2463   00239A                     u1881:
  2464   00239A  EFEA  F011         	goto	l1178
  2465   00239E                     u1880:
  2466   00239E  C008  F00C         	movff	___xxtofl@val,??___xxtofl
  2467   0023A2  C009  F00D         	movff	___xxtofl@val+1,??___xxtofl+1
  2468   0023A6  C00A  F00E         	movff	___xxtofl@val+2,??___xxtofl+2
  2469   0023AA  C00B  F00F         	movff	___xxtofl@val+3,??___xxtofl+3
  2470   0023AE  1E0C               	comf	??___xxtofl^0,f,c
  2471   0023B0  1E0D               	comf	(??___xxtofl+1)^0,f,c
  2472   0023B2  1E0E               	comf	(??___xxtofl+2)^0,f,c
  2473   0023B4  1E0F               	comf	(??___xxtofl+3)^0,f,c
  2474   0023B6  2A0C               	incf	??___xxtofl^0,f,c
  2475   0023B8  0E00               	movlw	0
  2476   0023BA  220D               	addwfc	(??___xxtofl+1)^0,f,c
  2477   0023BC  220E               	addwfc	(??___xxtofl+2)^0,f,c
  2478   0023BE  220F               	addwfc	(??___xxtofl+3)^0,f,c
  2479   0023C0  C00C  F012         	movff	??___xxtofl,___xxtofl@arg
  2480   0023C4  C00D  F013         	movff	??___xxtofl+1,___xxtofl@arg+1
  2481   0023C8  C00E  F014         	movff	??___xxtofl+2,___xxtofl@arg+2
  2482   0023CC  C00F  F015         	movff	??___xxtofl+3,___xxtofl@arg+3
  2483   0023D0  EFF2  F011         	goto	l2798
  2484   0023D4                     l1178:
  2485   0023D4  C008  F012         	movff	___xxtofl@val,___xxtofl@arg
  2486   0023D8  C009  F013         	movff	___xxtofl@val+1,___xxtofl@arg+1
  2487   0023DC  C00A  F014         	movff	___xxtofl@val+2,___xxtofl@arg+2
  2488   0023E0  C00B  F015         	movff	___xxtofl@val+3,___xxtofl@arg+3
  2489   0023E4                     l2798:
  2490   0023E4  5008               	movf	___xxtofl@val^0,w,c
  2491   0023E6  1009               	iorwf	(___xxtofl@val+1)^0,w,c
  2492   0023E8  100A               	iorwf	(___xxtofl@val+2)^0,w,c
  2493   0023EA  100B               	iorwf	(___xxtofl@val+3)^0,w,c
  2494   0023EC  A4D8               	btfss	status,2,c
  2495   0023EE  EFFB  F011         	goto	u1891
  2496   0023F2  EFFD  F011         	goto	u1890
  2497   0023F6                     u1891:
  2498   0023F6  EF07  F012         	goto	l2804
  2499   0023FA                     u1890:
  2500   0023FA  0E00               	movlw	0
  2501   0023FC  6E08               	movwf	?___xxtofl^0,c
  2502   0023FE  0E00               	movlw	0
  2503   002400  6E09               	movwf	(?___xxtofl+1)^0,c
  2504   002402  0E00               	movlw	0
  2505   002404  6E0A               	movwf	(?___xxtofl+2)^0,c
  2506   002406  0E00               	movlw	0
  2507   002408  6E0B               	movwf	(?___xxtofl+3)^0,c
  2508   00240A  EF98  F012         	goto	l1181
  2509   00240E                     l2804:
  2510   00240E  0E96               	movlw	150
  2511   002410  6E11               	movwf	___xxtofl@exp^0,c
  2512   002412  EF11  F012         	goto	l2808
  2513   002416                     l2806:
  2514   002416  2A11               	incf	___xxtofl@exp^0,f,c
  2515   002418  90D8               	bcf	status,0,c
  2516   00241A  3215               	rrcf	(___xxtofl@arg+3)^0,f,c
  2517   00241C  3214               	rrcf	(___xxtofl@arg+2)^0,f,c
  2518   00241E  3213               	rrcf	(___xxtofl@arg+1)^0,f,c
  2519   002420  3212               	rrcf	___xxtofl@arg^0,f,c
  2520   002422                     l2808:
  2521   002422  0E00               	movlw	0
  2522   002424  1412               	andwf	___xxtofl@arg^0,w,c
  2523   002426  6E0C               	movwf	??___xxtofl^0,c
  2524   002428  0E00               	movlw	0
  2525   00242A  1413               	andwf	(___xxtofl@arg+1)^0,w,c
  2526   00242C  6E0D               	movwf	(??___xxtofl+1)^0,c
  2527   00242E  0E00               	movlw	0
  2528   002430  1414               	andwf	(___xxtofl@arg+2)^0,w,c
  2529   002432  6E0E               	movwf	(??___xxtofl+2)^0,c
  2530   002434  0EFE               	movlw	254
  2531   002436  1415               	andwf	(___xxtofl@arg+3)^0,w,c
  2532   002438  6E0F               	movwf	(??___xxtofl+3)^0,c
  2533   00243A  500C               	movf	??___xxtofl^0,w,c
  2534   00243C  100D               	iorwf	(??___xxtofl+1)^0,w,c
  2535   00243E  100E               	iorwf	(??___xxtofl+2)^0,w,c
  2536   002440  100F               	iorwf	(??___xxtofl+3)^0,w,c
  2537   002442  A4D8               	btfss	status,2,c
  2538   002444  EF26  F012         	goto	u1901
  2539   002448  EF28  F012         	goto	u1900
  2540   00244C                     u1901:
  2541   00244C  EF0B  F012         	goto	l2806
  2542   002450                     u1900:
  2543   002450  EF36  F012         	goto	l1185
  2544   002454                     l2810:
  2545   002454  2A11               	incf	___xxtofl@exp^0,f,c
  2546   002456  0E01               	movlw	1
  2547   002458  2612               	addwf	___xxtofl@arg^0,f,c
  2548   00245A  0E00               	movlw	0
  2549   00245C  2213               	addwfc	(___xxtofl@arg+1)^0,f,c
  2550   00245E  2214               	addwfc	(___xxtofl@arg+2)^0,f,c
  2551   002460  2215               	addwfc	(___xxtofl@arg+3)^0,f,c
  2552   002462  90D8               	bcf	status,0,c
  2553   002464  3215               	rrcf	(___xxtofl@arg+3)^0,f,c
  2554   002466  3214               	rrcf	(___xxtofl@arg+2)^0,f,c
  2555   002468  3213               	rrcf	(___xxtofl@arg+1)^0,f,c
  2556   00246A  3212               	rrcf	___xxtofl@arg^0,f,c
  2557   00246C                     l1185:
  2558   00246C  0E00               	movlw	0
  2559   00246E  1412               	andwf	___xxtofl@arg^0,w,c
  2560   002470  6E0C               	movwf	??___xxtofl^0,c
  2561   002472  0E00               	movlw	0
  2562   002474  1413               	andwf	(___xxtofl@arg+1)^0,w,c
  2563   002476  6E0D               	movwf	(??___xxtofl+1)^0,c
  2564   002478  0E00               	movlw	0
  2565   00247A  1414               	andwf	(___xxtofl@arg+2)^0,w,c
  2566   00247C  6E0E               	movwf	(??___xxtofl+2)^0,c
  2567   00247E  0EFF               	movlw	255
  2568   002480  1415               	andwf	(___xxtofl@arg+3)^0,w,c
  2569   002482  6E0F               	movwf	(??___xxtofl+3)^0,c
  2570   002484  500C               	movf	??___xxtofl^0,w,c
  2571   002486  100D               	iorwf	(??___xxtofl+1)^0,w,c
  2572   002488  100E               	iorwf	(??___xxtofl+2)^0,w,c
  2573   00248A  100F               	iorwf	(??___xxtofl+3)^0,w,c
  2574   00248C  A4D8               	btfss	status,2,c
  2575   00248E  EF4B  F012         	goto	u1911
  2576   002492  EF4D  F012         	goto	u1910
  2577   002496                     u1911:
  2578   002496  EF2A  F012         	goto	l2810
  2579   00249A                     u1910:
  2580   00249A  EF55  F012         	goto	l2818
  2581   00249E                     l2816:
  2582   00249E  0611               	decf	___xxtofl@exp^0,f,c
  2583   0024A0  90D8               	bcf	status,0,c
  2584   0024A2  3612               	rlcf	___xxtofl@arg^0,f,c
  2585   0024A4  3613               	rlcf	(___xxtofl@arg+1)^0,f,c
  2586   0024A6  3614               	rlcf	(___xxtofl@arg+2)^0,f,c
  2587   0024A8  3615               	rlcf	(___xxtofl@arg+3)^0,f,c
  2588   0024AA                     l2818:
  2589   0024AA  BE14               	btfsc	(___xxtofl@arg+2)^0,7,c
  2590   0024AC  EF5A  F012         	goto	u1921
  2591   0024B0  EF5C  F012         	goto	u1920
  2592   0024B4                     u1921:
  2593   0024B4  EF64  F012         	goto	l1192
  2594   0024B8                     u1920:
  2595   0024B8  0E02               	movlw	2
  2596   0024BA  6011               	cpfslt	___xxtofl@exp^0,c
  2597   0024BC  EF62  F012         	goto	u1931
  2598   0024C0  EF64  F012         	goto	u1930
  2599   0024C4                     u1931:
  2600   0024C4  EF4F  F012         	goto	l2816
  2601   0024C8                     u1930:
  2602   0024C8                     l1192:
  2603   0024C8  B011               	btfsc	___xxtofl@exp^0,0,c
  2604   0024CA  EF69  F012         	goto	u1941
  2605   0024CE  EF6B  F012         	goto	u1940
  2606   0024D2                     u1941:
  2607   0024D2  EF6C  F012         	goto	l2824
  2608   0024D6                     u1940:
  2609   0024D6  9E14               	bcf	(___xxtofl@arg+2)^0,7,c
  2610   0024D8                     l2824:
  2611   0024D8  90D8               	bcf	status,0,c
  2612   0024DA  3211               	rrcf	___xxtofl@exp^0,f,c
  2613   0024DC  C011  F00C         	movff	___xxtofl@exp,??___xxtofl
  2614   0024E0  6A0D               	clrf	(??___xxtofl+1)^0,c
  2615   0024E2  6A0E               	clrf	(??___xxtofl+2)^0,c
  2616   0024E4  6A0F               	clrf	(??___xxtofl+3)^0,c
  2617   0024E6  C00C  F00F         	movff	??___xxtofl,??___xxtofl+3
  2618   0024EA  6A0E               	clrf	(??___xxtofl+2)^0,c
  2619   0024EC  6A0D               	clrf	(??___xxtofl+1)^0,c
  2620   0024EE  6A0C               	clrf	??___xxtofl^0,c
  2621   0024F0  500C               	movf	??___xxtofl^0,w,c
  2622   0024F2  1212               	iorwf	___xxtofl@arg^0,f,c
  2623   0024F4  500D               	movf	(??___xxtofl+1)^0,w,c
  2624   0024F6  1213               	iorwf	(___xxtofl@arg+1)^0,f,c
  2625   0024F8  500E               	movf	(??___xxtofl+2)^0,w,c
  2626   0024FA  1214               	iorwf	(___xxtofl@arg+2)^0,f,c
  2627   0024FC  500F               	movf	(??___xxtofl+3)^0,w,c
  2628   0024FE  1215               	iorwf	(___xxtofl@arg+3)^0,f,c
  2629   002500  5010               	movf	___xxtofl@sign^0,w,c
  2630   002502  B4D8               	btfsc	status,2,c
  2631   002504  EF86  F012         	goto	u1951
  2632   002508  EF88  F012         	goto	u1950
  2633   00250C                     u1951:
  2634   00250C  EF90  F012         	goto	l2834
  2635   002510                     u1950:
  2636   002510  BE0B               	btfsc	(___xxtofl@val+3)^0,7,c
  2637   002512  EF8F  F012         	goto	u1960
  2638   002516  EF8D  F012         	goto	u1961
  2639   00251A                     u1961:
  2640   00251A  EF90  F012         	goto	l2834
  2641   00251E                     u1960:
  2642   00251E  8E15               	bsf	(___xxtofl@arg+3)^0,7,c
  2643   002520                     l2834:
  2644   002520  C012  F008         	movff	___xxtofl@arg,?___xxtofl
  2645   002524  C013  F009         	movff	___xxtofl@arg+1,?___xxtofl+1
  2646   002528  C014  F00A         	movff	___xxtofl@arg+2,?___xxtofl+2
  2647   00252C  C015  F00B         	movff	___xxtofl@arg+3,?___xxtofl+3
  2648   002530                     l1181:
  2649   002530  0012               	return		;funcret
  2650   002532                     __end_of___xxtofl:
  2651                           	callstack 0
  2652                           
  2653 ;; *************** function ___fltol *****************
  2654 ;; Defined at:
  2655 ;;		line 43 in file "C:\Program Files\Microchip\xc8\v2.46\pic\sources\c99\common\fltol.c"
  2656 ;; Parameters:    Size  Location     Type
  2657 ;;  f1              4   46[COMRAM] unsigned char 
  2658 ;; Auto vars:     Size  Location     Type
  2659 ;;  exp1            1   55[COMRAM] unsigned char 
  2660 ;;  sign1           1   54[COMRAM] unsigned char 
  2661 ;; Return value:  Size  Location     Type
  2662 ;;                  4   46[COMRAM] long 
  2663 ;; Registers used:
  2664 ;;		wreg, status,2, status,0
  2665 ;; Tracked objects:
  2666 ;;		On entry : 0/0
  2667 ;;		On exit  : 0/0
  2668 ;;		Unchanged: 0/0
  2669 ;; Data sizes:     COMRAM   BANK0   BANK1   BANK2   BANK3   BANK4   BANK5
  2670 ;;      Params:         4       0       0       0       0       0       0
  2671 ;;      Locals:         2       0       0       0       0       0       0
  2672 ;;      Temps:          4       0       0       0       0       0       0
  2673 ;;      Totals:        10       0       0       0       0       0       0
  2674 ;;Total ram usage:       10 bytes
  2675 ;; Hardware stack levels used: 1
  2676 ;; This function calls:
  2677 ;;		Nothing
  2678 ;; This function is called by:
  2679 ;;		_view_dashboard
  2680 ;; This function uses a non-reentrant model
  2681 ;;
  2682                           
  2683                           	psect	text9
  2684   001A08                     __ptext9:
  2685                           	callstack 0
  2686   001A08                     ___fltol:
  2687                           	callstack 29
  2688   001A08  3431               	rlcf	(___fltol@f1+2)^0,w,c
  2689   001A0A  3432               	rlcf	(___fltol@f1+3)^0,w,c
  2690   001A0C  6E38               	movwf	___fltol@exp1^0,c
  2691   001A0E  5038               	movf	___fltol@exp1^0,w,c
  2692   001A10  A4D8               	btfss	status,2,c
  2693   001A12  EF0D  F00D         	goto	u1771
  2694   001A16  EF0F  F00D         	goto	u1770
  2695   001A1A                     u1771:
  2696   001A1A  EF19  F00D         	goto	l2738
  2697   001A1E                     u1770:
  2698   001A1E                     l2734:
  2699   001A1E  0E00               	movlw	0
  2700   001A20  6E2F               	movwf	?___fltol^0,c
  2701   001A22  0E00               	movlw	0
  2702   001A24  6E30               	movwf	(?___fltol+1)^0,c
  2703   001A26  0E00               	movlw	0
  2704   001A28  6E31               	movwf	(?___fltol+2)^0,c
  2705   001A2A  0E00               	movlw	0
  2706   001A2C  6E32               	movwf	(?___fltol+3)^0,c
  2707   001A2E  EF86  F00D         	goto	l820
  2708   001A32                     l2738:
  2709   001A32  C02F  F033         	movff	___fltol@f1,??___fltol
  2710   001A36  C030  F034         	movff	___fltol@f1+1,??___fltol+1
  2711   001A3A  C031  F035         	movff	___fltol@f1+2,??___fltol+2
  2712   001A3E  C032  F036         	movff	___fltol@f1+3,??___fltol+3
  2713   001A42  0E20               	movlw	32
  2714   001A44  EF29  F00D         	goto	u1780
  2715   001A48                     u1785:
  2716   001A48  90D8               	bcf	status,0,c
  2717   001A4A  3236               	rrcf	(??___fltol+3)^0,f,c
  2718   001A4C  3235               	rrcf	(??___fltol+2)^0,f,c
  2719   001A4E  3234               	rrcf	(??___fltol+1)^0,f,c
  2720   001A50  3233               	rrcf	??___fltol^0,f,c
  2721   001A52                     u1780:
  2722   001A52  2EE8               	decfsz	wreg,f,c
  2723   001A54  EF24  F00D         	goto	u1785
  2724   001A58  5033               	movf	??___fltol^0,w,c
  2725   001A5A  6E37               	movwf	___fltol@sign1^0,c
  2726   001A5C  8E31               	bsf	(___fltol@f1+2)^0,7,c
  2727   001A5E  0EFF               	movlw	255
  2728   001A60  162F               	andwf	___fltol@f1^0,f,c
  2729   001A62  0EFF               	movlw	255
  2730   001A64  1630               	andwf	(___fltol@f1+1)^0,f,c
  2731   001A66  0EFF               	movlw	255
  2732   001A68  1631               	andwf	(___fltol@f1+2)^0,f,c
  2733   001A6A  0E00               	movlw	0
  2734   001A6C  1632               	andwf	(___fltol@f1+3)^0,f,c
  2735   001A6E  0E96               	movlw	150
  2736   001A70  5E38               	subwf	___fltol@exp1^0,f,c
  2737   001A72  BE38               	btfsc	___fltol@exp1^0,7,c
  2738   001A74  EF40  F00D         	goto	u1790
  2739   001A78  EF3E  F00D         	goto	u1791
  2740   001A7C                     u1791:
  2741   001A7C  EF56  F00D         	goto	l2758
  2742   001A80                     u1790:
  2743   001A80  5038               	movf	___fltol@exp1^0,w,c
  2744   001A82  0A80               	xorlw	128
  2745   001A84  0F97               	addlw	151
  2746   001A86  B0D8               	btfsc	status,0,c
  2747   001A88  EF48  F00D         	goto	u1801
  2748   001A8C  EF4A  F00D         	goto	u1800
  2749   001A90                     u1801:
  2750   001A90  EF4C  F00D         	goto	l2754
  2751   001A94                     u1800:
  2752   001A94  EF0F  F00D         	goto	l2734
  2753   001A98                     l2754:
  2754   001A98  90D8               	bcf	status,0,c
  2755   001A9A  3232               	rrcf	(___fltol@f1+3)^0,f,c
  2756   001A9C  3231               	rrcf	(___fltol@f1+2)^0,f,c
  2757   001A9E  3230               	rrcf	(___fltol@f1+1)^0,f,c
  2758   001AA0  322F               	rrcf	___fltol@f1^0,f,c
  2759   001AA2  3E38               	incfsz	___fltol@exp1^0,f,c
  2760   001AA4  EF4C  F00D         	goto	l2754
  2761   001AA8  EF6E  F00D         	goto	l2768
  2762   001AAC                     l2758:
  2763   001AAC  0E1F               	movlw	31
  2764   001AAE  6438               	cpfsgt	___fltol@exp1^0,c
  2765   001AB0  EF5C  F00D         	goto	u1811
  2766   001AB4  EF5E  F00D         	goto	u1810
  2767   001AB8                     u1811:
  2768   001AB8  EF66  F00D         	goto	l2766
  2769   001ABC                     u1810:
  2770   001ABC  EF0F  F00D         	goto	l2734
  2771   001AC0                     l2764:
  2772   001AC0  90D8               	bcf	status,0,c
  2773   001AC2  362F               	rlcf	___fltol@f1^0,f,c
  2774   001AC4  3630               	rlcf	(___fltol@f1+1)^0,f,c
  2775   001AC6  3631               	rlcf	(___fltol@f1+2)^0,f,c
  2776   001AC8  3632               	rlcf	(___fltol@f1+3)^0,f,c
  2777   001ACA  0638               	decf	___fltol@exp1^0,f,c
  2778   001ACC                     l2766:
  2779   001ACC  5038               	movf	___fltol@exp1^0,w,c
  2780   001ACE  A4D8               	btfss	status,2,c
  2781   001AD0  EF6C  F00D         	goto	u1821
  2782   001AD4  EF6E  F00D         	goto	u1820
  2783   001AD8                     u1821:
  2784   001AD8  EF60  F00D         	goto	l2764
  2785   001ADC                     u1820:
  2786   001ADC                     l2768:
  2787   001ADC  5037               	movf	___fltol@sign1^0,w,c
  2788   001ADE  B4D8               	btfsc	status,2,c
  2789   001AE0  EF74  F00D         	goto	u1831
  2790   001AE4  EF76  F00D         	goto	u1830
  2791   001AE8                     u1831:
  2792   001AE8  EF7E  F00D         	goto	l2772
  2793   001AEC                     u1830:
  2794   001AEC  1E32               	comf	(___fltol@f1+3)^0,f,c
  2795   001AEE  1E31               	comf	(___fltol@f1+2)^0,f,c
  2796   001AF0  1E30               	comf	(___fltol@f1+1)^0,f,c
  2797   001AF2  6C2F               	negf	___fltol@f1^0,c
  2798   001AF4  0E00               	movlw	0
  2799   001AF6  2230               	addwfc	(___fltol@f1+1)^0,f,c
  2800   001AF8  2231               	addwfc	(___fltol@f1+2)^0,f,c
  2801   001AFA  2232               	addwfc	(___fltol@f1+3)^0,f,c
  2802   001AFC                     l2772:
  2803   001AFC  C02F  F02F         	movff	___fltol@f1,?___fltol
  2804   001B00  C030  F030         	movff	___fltol@f1+1,?___fltol+1
  2805   001B04  C031  F031         	movff	___fltol@f1+2,?___fltol+2
  2806   001B08  C032  F032         	movff	___fltol@f1+3,?___fltol+3
  2807   001B0C                     l820:
  2808   001B0C  0012               	return		;funcret
  2809   001B0E                     __end_of___fltol:
  2810                           	callstack 0
  2811                           
  2812 ;; *************** function ___fldiv *****************
  2813 ;; Defined at:
  2814 ;;		line 11 in file "C:\Program Files\Microchip\xc8\v2.46\pic\sources\c99\common\sprcdiv.c"
  2815 ;; Parameters:    Size  Location     Type
  2816 ;;  b               4   21[COMRAM] long 
  2817 ;;  a               4   25[COMRAM] long 
  2818 ;; Auto vars:     Size  Location     Type
  2819 ;;  grs             4   40[COMRAM] unsigned long 
  2820 ;;  rem             4   33[COMRAM] unsigned long 
  2821 ;;  new_exp         2   38[COMRAM] short 
  2822 ;;  aexp            1   45[COMRAM] unsigned char 
  2823 ;;  bexp            1   44[COMRAM] unsigned char 
  2824 ;;  sign            1   37[COMRAM] unsigned char 
  2825 ;; Return value:  Size  Location     Type
  2826 ;;                  4   21[COMRAM] unsigned char 
  2827 ;; Registers used:
  2828 ;;		wreg, status,2, status,0
  2829 ;; Tracked objects:
  2830 ;;		On entry : 0/0
  2831 ;;		On exit  : 0/0
  2832 ;;		Unchanged: 0/0
  2833 ;; Data sizes:     COMRAM   BANK0   BANK1   BANK2   BANK3   BANK4   BANK5
  2834 ;;      Params:         8       0       0       0       0       0       0
  2835 ;;      Locals:        13       0       0       0       0       0       0
  2836 ;;      Temps:          4       0       0       0       0       0       0
  2837 ;;      Totals:        25       0       0       0       0       0       0
  2838 ;;Total ram usage:       25 bytes
  2839 ;; Hardware stack levels used: 1
  2840 ;; This function calls:
  2841 ;;		Nothing
  2842 ;; This function is called by:
  2843 ;;		_view_dashboard
  2844 ;; This function uses a non-reentrant model
  2845 ;;
  2846                           
  2847                           	psect	text10
  2848   00273C                     __ptext10:
  2849                           	callstack 0
  2850   00273C                     ___fldiv:
  2851                           	callstack 29
  2852   00273C  5019               	movf	(___fldiv@b+3)^0,w,c
  2853   00273E  0B80               	andlw	128
  2854   002740  6E26               	movwf	___fldiv@sign^0,c
  2855   002742  5019               	movf	(___fldiv@b+3)^0,w,c
  2856   002744  2419               	addwf	(___fldiv@b+3)^0,w,c
  2857   002746  6E2D               	movwf	___fldiv@bexp^0,c
  2858   002748  AE18               	btfss	(___fldiv@b+2)^0,7,c
  2859   00274A  EFA9  F013         	goto	u1541
  2860   00274E  EFAB  F013         	goto	u1540
  2861   002752                     u1541:
  2862   002752  EFAC  F013         	goto	l2600
  2863   002756                     u1540:
  2864   002756  802D               	bsf	___fldiv@bexp^0,0,c
  2865   002758                     l2600:
  2866   002758  502D               	movf	___fldiv@bexp^0,w,c
  2867   00275A  B4D8               	btfsc	status,2,c
  2868   00275C  EFB2  F013         	goto	u1551
  2869   002760  EFB4  F013         	goto	u1550
  2870   002764                     u1551:
  2871   002764  EFC9  F013         	goto	l2610
  2872   002768                     u1550:
  2873   002768  282D               	incf	___fldiv@bexp^0,w,c
  2874   00276A  A4D8               	btfss	status,2,c
  2875   00276C  EFBA  F013         	goto	u1561
  2876   002770  EFBC  F013         	goto	u1560
  2877   002774                     u1561:
  2878   002774  EFC4  F013         	goto	l2606
  2879   002778                     u1560:
  2880   002778  0E00               	movlw	0
  2881   00277A  6E16               	movwf	___fldiv@b^0,c
  2882   00277C  0E00               	movlw	0
  2883   00277E  6E17               	movwf	(___fldiv@b+1)^0,c
  2884   002780  0E00               	movlw	0
  2885   002782  6E18               	movwf	(___fldiv@b+2)^0,c
  2886   002784  0E00               	movlw	0
  2887   002786  6E19               	movwf	(___fldiv@b+3)^0,c
  2888   002788                     l2606:
  2889   002788  8E18               	bsf	(___fldiv@b+2)^0,7,c
  2890   00278A  0E00               	movlw	0
  2891   00278C  6E19               	movwf	(___fldiv@b+3)^0,c
  2892   00278E  EFD1  F013         	goto	l2612
  2893   002792                     l2610:
  2894   002792  0E00               	movlw	0
  2895   002794  6E16               	movwf	___fldiv@b^0,c
  2896   002796  0E00               	movlw	0
  2897   002798  6E17               	movwf	(___fldiv@b+1)^0,c
  2898   00279A  0E00               	movlw	0
  2899   00279C  6E18               	movwf	(___fldiv@b+2)^0,c
  2900   00279E  0E00               	movlw	0
  2901   0027A0  6E19               	movwf	(___fldiv@b+3)^0,c
  2902   0027A2                     l2612:
  2903   0027A2  501D               	movf	(___fldiv@a+3)^0,w,c
  2904   0027A4  0B80               	andlw	128
  2905   0027A6  1A26               	xorwf	___fldiv@sign^0,f,c
  2906   0027A8  501D               	movf	(___fldiv@a+3)^0,w,c
  2907   0027AA  241D               	addwf	(___fldiv@a+3)^0,w,c
  2908   0027AC  6E2E               	movwf	___fldiv@aexp^0,c
  2909   0027AE  AE1C               	btfss	(___fldiv@a+2)^0,7,c
  2910   0027B0  EFDC  F013         	goto	u1571
  2911   0027B4  EFDE  F013         	goto	u1570
  2912   0027B8                     u1571:
  2913   0027B8  EFDF  F013         	goto	l2620
  2914   0027BC                     u1570:
  2915   0027BC  802E               	bsf	___fldiv@aexp^0,0,c
  2916   0027BE                     l2620:
  2917   0027BE  502E               	movf	___fldiv@aexp^0,w,c
  2918   0027C0  B4D8               	btfsc	status,2,c
  2919   0027C2  EFE5  F013         	goto	u1581
  2920   0027C6  EFE7  F013         	goto	u1580
  2921   0027CA                     u1581:
  2922   0027CA  EFFC  F013         	goto	l2630
  2923   0027CE                     u1580:
  2924   0027CE  282E               	incf	___fldiv@aexp^0,w,c
  2925   0027D0  A4D8               	btfss	status,2,c
  2926   0027D2  EFED  F013         	goto	u1591
  2927   0027D6  EFEF  F013         	goto	u1590
  2928   0027DA                     u1591:
  2929   0027DA  EFF7  F013         	goto	l2626
  2930   0027DE                     u1590:
  2931   0027DE  0E00               	movlw	0
  2932   0027E0  6E1A               	movwf	___fldiv@a^0,c
  2933   0027E2  0E00               	movlw	0
  2934   0027E4  6E1B               	movwf	(___fldiv@a+1)^0,c
  2935   0027E6  0E00               	movlw	0
  2936   0027E8  6E1C               	movwf	(___fldiv@a+2)^0,c
  2937   0027EA  0E00               	movlw	0
  2938   0027EC  6E1D               	movwf	(___fldiv@a+3)^0,c
  2939   0027EE                     l2626:
  2940   0027EE  8E1C               	bsf	(___fldiv@a+2)^0,7,c
  2941   0027F0  0E00               	movlw	0
  2942   0027F2  6E1D               	movwf	(___fldiv@a+3)^0,c
  2943   0027F4  EF04  F014         	goto	l2632
  2944   0027F8                     l2630:
  2945   0027F8  0E00               	movlw	0
  2946   0027FA  6E1A               	movwf	___fldiv@a^0,c
  2947   0027FC  0E00               	movlw	0
  2948   0027FE  6E1B               	movwf	(___fldiv@a+1)^0,c
  2949   002800  0E00               	movlw	0
  2950   002802  6E1C               	movwf	(___fldiv@a+2)^0,c
  2951   002804  0E00               	movlw	0
  2952   002806  6E1D               	movwf	(___fldiv@a+3)^0,c
  2953   002808                     l2632:
  2954   002808  501A               	movf	___fldiv@a^0,w,c
  2955   00280A  101B               	iorwf	(___fldiv@a+1)^0,w,c
  2956   00280C  101C               	iorwf	(___fldiv@a+2)^0,w,c
  2957   00280E  101D               	iorwf	(___fldiv@a+3)^0,w,c
  2958   002810  A4D8               	btfss	status,2,c
  2959   002812  EF0D  F014         	goto	u1601
  2960   002816  EF0F  F014         	goto	u1600
  2961   00281A                     u1601:
  2962   00281A  EF27  F014         	goto	l2644
  2963   00281E                     u1600:
  2964   00281E  0E00               	movlw	0
  2965   002820  6E16               	movwf	___fldiv@b^0,c
  2966   002822  0E00               	movlw	0
  2967   002824  6E17               	movwf	(___fldiv@b+1)^0,c
  2968   002826  0E00               	movlw	0
  2969   002828  6E18               	movwf	(___fldiv@b+2)^0,c
  2970   00282A  0E00               	movlw	0
  2971   00282C  6E19               	movwf	(___fldiv@b+3)^0,c
  2972   00282E  0E80               	movlw	128
  2973   002830  1218               	iorwf	(___fldiv@b+2)^0,f,c
  2974   002832  0E7F               	movlw	127
  2975   002834  1219               	iorwf	(___fldiv@b+3)^0,f,c
  2976   002836                     l2638:
  2977   002836  5026               	movf	___fldiv@sign^0,w,c
  2978   002838  1219               	iorwf	(___fldiv@b+3)^0,f,c
  2979   00283A  C016  F016         	movff	___fldiv@b,?___fldiv
  2980   00283E  C017  F017         	movff	___fldiv@b+1,?___fldiv+1
  2981   002842  C018  F018         	movff	___fldiv@b+2,?___fldiv+2
  2982   002846  C019  F019         	movff	___fldiv@b+3,?___fldiv+3
  2983   00284A  EF6A  F015         	goto	l1105
  2984   00284E                     l2644:
  2985   00284E  502D               	movf	___fldiv@bexp^0,w,c
  2986   002850  A4D8               	btfss	status,2,c
  2987   002852  EF2D  F014         	goto	u1611
  2988   002856  EF2F  F014         	goto	u1610
  2989   00285A                     u1611:
  2990   00285A  EF39  F014         	goto	l2652
  2991   00285E                     u1610:
  2992   00285E  0E00               	movlw	0
  2993   002860  6E16               	movwf	?___fldiv^0,c
  2994   002862  0E00               	movlw	0
  2995   002864  6E17               	movwf	(?___fldiv+1)^0,c
  2996   002866  0E00               	movlw	0
  2997   002868  6E18               	movwf	(?___fldiv+2)^0,c
  2998   00286A  0E00               	movlw	0
  2999   00286C  6E19               	movwf	(?___fldiv+3)^0,c
  3000   00286E  EF6A  F015         	goto	l1105
  3001   002872                     l2652:
  3002   002872  502E               	movf	___fldiv@aexp^0,w,c
  3003   002874  C02D  F01E         	movff	___fldiv@bexp,??___fldiv
  3004   002878  6A1F               	clrf	(??___fldiv+1)^0,c
  3005   00287A  5E1E               	subwf	??___fldiv^0,f,c
  3006   00287C  0E00               	movlw	0
  3007   00287E  5A1F               	subwfb	(??___fldiv+1)^0,f,c
  3008   002880  0E7F               	movlw	127
  3009   002882  241E               	addwf	??___fldiv^0,w,c
  3010   002884  6E27               	movwf	___fldiv@new_exp^0,c
  3011   002886  0E00               	movlw	0
  3012   002888  201F               	addwfc	(??___fldiv+1)^0,w,c
  3013   00288A  6E28               	movwf	(___fldiv@new_exp+1)^0,c
  3014   00288C  C016  F022         	movff	___fldiv@b,___fldiv@rem
  3015   002890  C017  F023         	movff	___fldiv@b+1,___fldiv@rem+1
  3016   002894  C018  F024         	movff	___fldiv@b+2,___fldiv@rem+2
  3017   002898  C019  F025         	movff	___fldiv@b+3,___fldiv@rem+3
  3018   00289C  0E00               	movlw	0
  3019   00289E  6E16               	movwf	___fldiv@b^0,c
  3020   0028A0  0E00               	movlw	0
  3021   0028A2  6E17               	movwf	(___fldiv@b+1)^0,c
  3022   0028A4  0E00               	movlw	0
  3023   0028A6  6E18               	movwf	(___fldiv@b+2)^0,c
  3024   0028A8  0E00               	movlw	0
  3025   0028AA  6E19               	movwf	(___fldiv@b+3)^0,c
  3026   0028AC  0E00               	movlw	0
  3027   0028AE  6E29               	movwf	___fldiv@grs^0,c
  3028   0028B0  0E00               	movlw	0
  3029   0028B2  6E2A               	movwf	(___fldiv@grs+1)^0,c
  3030   0028B4  0E00               	movlw	0
  3031   0028B6  6E2B               	movwf	(___fldiv@grs+2)^0,c
  3032   0028B8  0E00               	movlw	0
  3033   0028BA  6E2C               	movwf	(___fldiv@grs+3)^0,c
  3034   0028BC  0E00               	movlw	0
  3035   0028BE  6E2E               	movwf	___fldiv@aexp^0,c
  3036   0028C0  EF9A  F014         	goto	l1107
  3037   0028C4                     l2662:
  3038   0028C4  502E               	movf	___fldiv@aexp^0,w,c
  3039   0028C6  B4D8               	btfsc	status,2,c
  3040   0028C8  EF68  F014         	goto	u1621
  3041   0028CC  EF6A  F014         	goto	u1620
  3042   0028D0                     u1621:
  3043   0028D0  EF81  F014         	goto	l2670
  3044   0028D4                     u1620:
  3045   0028D4  90D8               	bcf	status,0,c
  3046   0028D6  3622               	rlcf	___fldiv@rem^0,f,c
  3047   0028D8  3623               	rlcf	(___fldiv@rem+1)^0,f,c
  3048   0028DA  3624               	rlcf	(___fldiv@rem+2)^0,f,c
  3049   0028DC  3625               	rlcf	(___fldiv@rem+3)^0,f,c
  3050   0028DE  90D8               	bcf	status,0,c
  3051   0028E0  3616               	rlcf	___fldiv@b^0,f,c
  3052   0028E2  3617               	rlcf	(___fldiv@b+1)^0,f,c
  3053   0028E4  3618               	rlcf	(___fldiv@b+2)^0,f,c
  3054   0028E6  3619               	rlcf	(___fldiv@b+3)^0,f,c
  3055   0028E8  AE2C               	btfss	(___fldiv@grs+3)^0,7,c
  3056   0028EA  EF79  F014         	goto	u1631
  3057   0028EE  EF7B  F014         	goto	u1630
  3058   0028F2                     u1631:
  3059   0028F2  EF7C  F014         	goto	l1110
  3060   0028F6                     u1630:
  3061   0028F6  8016               	bsf	___fldiv@b^0,0,c
  3062   0028F8                     l1110:
  3063   0028F8  90D8               	bcf	status,0,c
  3064   0028FA  3629               	rlcf	___fldiv@grs^0,f,c
  3065   0028FC  362A               	rlcf	(___fldiv@grs+1)^0,f,c
  3066   0028FE  362B               	rlcf	(___fldiv@grs+2)^0,f,c
  3067   002900  362C               	rlcf	(___fldiv@grs+3)^0,f,c
  3068   002902                     l2670:
  3069   002902  501A               	movf	___fldiv@a^0,w,c
  3070   002904  5C22               	subwf	___fldiv@rem^0,w,c
  3071   002906  501B               	movf	(___fldiv@a+1)^0,w,c
  3072   002908  5823               	subwfb	(___fldiv@rem+1)^0,w,c
  3073   00290A  501C               	movf	(___fldiv@a+2)^0,w,c
  3074   00290C  5824               	subwfb	(___fldiv@rem+2)^0,w,c
  3075   00290E  501D               	movf	(___fldiv@a+3)^0,w,c
  3076   002910  5825               	subwfb	(___fldiv@rem+3)^0,w,c
  3077   002912  A0D8               	btfss	status,0,c
  3078   002914  EF8E  F014         	goto	u1641
  3079   002918  EF90  F014         	goto	u1640
  3080   00291C                     u1641:
  3081   00291C  EF99  F014         	goto	l2676
  3082   002920                     u1640:
  3083   002920  8C2C               	bsf	(___fldiv@grs+3)^0,6,c
  3084   002922  501A               	movf	___fldiv@a^0,w,c
  3085   002924  5E22               	subwf	___fldiv@rem^0,f,c
  3086   002926  501B               	movf	(___fldiv@a+1)^0,w,c
  3087   002928  5A23               	subwfb	(___fldiv@rem+1)^0,f,c
  3088   00292A  501C               	movf	(___fldiv@a+2)^0,w,c
  3089   00292C  5A24               	subwfb	(___fldiv@rem+2)^0,f,c
  3090   00292E  501D               	movf	(___fldiv@a+3)^0,w,c
  3091   002930  5A25               	subwfb	(___fldiv@rem+3)^0,f,c
  3092   002932                     l2676:
  3093   002932  2A2E               	incf	___fldiv@aexp^0,f,c
  3094   002934                     l1107:
  3095   002934  0E19               	movlw	25
  3096   002936  642E               	cpfsgt	___fldiv@aexp^0,c
  3097   002938  EFA0  F014         	goto	u1651
  3098   00293C  EFA2  F014         	goto	u1650
  3099   002940                     u1651:
  3100   002940  EF62  F014         	goto	l2662
  3101   002944                     u1650:
  3102   002944  5022               	movf	___fldiv@rem^0,w,c
  3103   002946  1023               	iorwf	(___fldiv@rem+1)^0,w,c
  3104   002948  1024               	iorwf	(___fldiv@rem+2)^0,w,c
  3105   00294A  1025               	iorwf	(___fldiv@rem+3)^0,w,c
  3106   00294C  B4D8               	btfsc	status,2,c
  3107   00294E  EFAB  F014         	goto	u1661
  3108   002952  EFAD  F014         	goto	u1660
  3109   002956                     u1661:
  3110   002956  EFC5  F014         	goto	l2688
  3111   00295A                     u1660:
  3112   00295A  8029               	bsf	___fldiv@grs^0,0,c
  3113   00295C  EFC5  F014         	goto	l2688
  3114   002960                     l2682:
  3115   002960  90D8               	bcf	status,0,c
  3116   002962  3616               	rlcf	___fldiv@b^0,f,c
  3117   002964  3617               	rlcf	(___fldiv@b+1)^0,f,c
  3118   002966  3618               	rlcf	(___fldiv@b+2)^0,f,c
  3119   002968  3619               	rlcf	(___fldiv@b+3)^0,f,c
  3120   00296A  AE2C               	btfss	(___fldiv@grs+3)^0,7,c
  3121   00296C  EFBA  F014         	goto	u1671
  3122   002970  EFBC  F014         	goto	u1670
  3123   002974                     u1671:
  3124   002974  EFBD  F014         	goto	l1116
  3125   002978                     u1670:
  3126   002978  8016               	bsf	___fldiv@b^0,0,c
  3127   00297A                     l1116:
  3128   00297A  90D8               	bcf	status,0,c
  3129   00297C  3629               	rlcf	___fldiv@grs^0,f,c
  3130   00297E  362A               	rlcf	(___fldiv@grs+1)^0,f,c
  3131   002980  362B               	rlcf	(___fldiv@grs+2)^0,f,c
  3132   002982  362C               	rlcf	(___fldiv@grs+3)^0,f,c
  3133   002984  0627               	decf	___fldiv@new_exp^0,f,c
  3134   002986  A0D8               	btfss	status,0,c
  3135   002988  0628               	decf	(___fldiv@new_exp+1)^0,f,c
  3136   00298A                     l2688:
  3137   00298A  AE18               	btfss	(___fldiv@b+2)^0,7,c
  3138   00298C  EFCA  F014         	goto	u1681
  3139   002990  EFCC  F014         	goto	u1680
  3140   002994                     u1681:
  3141   002994  EFB0  F014         	goto	l2682
  3142   002998                     u1680:
  3143   002998  0E00               	movlw	0
  3144   00299A  6E2E               	movwf	___fldiv@aexp^0,c
  3145   00299C  AE2C               	btfss	(___fldiv@grs+3)^0,7,c
  3146   00299E  EFD3  F014         	goto	u1691
  3147   0029A2  EFD5  F014         	goto	u1690
  3148   0029A6                     u1691:
  3149   0029A6  EFF9  F014         	goto	l1118
  3150   0029AA                     u1690:
  3151   0029AA  0EFF               	movlw	255
  3152   0029AC  1429               	andwf	___fldiv@grs^0,w,c
  3153   0029AE  6E1E               	movwf	??___fldiv^0,c
  3154   0029B0  0EFF               	movlw	255
  3155   0029B2  142A               	andwf	(___fldiv@grs+1)^0,w,c
  3156   0029B4  6E1F               	movwf	(??___fldiv+1)^0,c
  3157   0029B6  0EFF               	movlw	255
  3158   0029B8  142B               	andwf	(___fldiv@grs+2)^0,w,c
  3159   0029BA  6E20               	movwf	(??___fldiv+2)^0,c
  3160   0029BC  0E7F               	movlw	127
  3161   0029BE  142C               	andwf	(___fldiv@grs+3)^0,w,c
  3162   0029C0  6E21               	movwf	(??___fldiv+3)^0,c
  3163   0029C2  501E               	movf	??___fldiv^0,w,c
  3164   0029C4  101F               	iorwf	(??___fldiv+1)^0,w,c
  3165   0029C6  1020               	iorwf	(??___fldiv+2)^0,w,c
  3166   0029C8  1021               	iorwf	(??___fldiv+3)^0,w,c
  3167   0029CA  B4D8               	btfsc	status,2,c
  3168   0029CC  EFEA  F014         	goto	u1701
  3169   0029D0  EFEC  F014         	goto	u1700
  3170   0029D4                     u1701:
  3171   0029D4  EFF0  F014         	goto	l1119
  3172   0029D8                     u1700:
  3173   0029D8                     l2696:
  3174   0029D8  0E01               	movlw	1
  3175   0029DA  6E2E               	movwf	___fldiv@aexp^0,c
  3176   0029DC  EFF9  F014         	goto	l1118
  3177   0029E0                     l1119:
  3178   0029E0  A016               	btfss	___fldiv@b^0,0,c
  3179   0029E2  EFF5  F014         	goto	u1711
  3180   0029E6  EFF7  F014         	goto	u1710
  3181   0029EA                     u1711:
  3182   0029EA  EFF9  F014         	goto	l1118
  3183   0029EE                     u1710:
  3184   0029EE  EFEC  F014         	goto	l2696
  3185   0029F2                     l1118:
  3186   0029F2  502E               	movf	___fldiv@aexp^0,w,c
  3187   0029F4  B4D8               	btfsc	status,2,c
  3188   0029F6  EFFF  F014         	goto	u1721
  3189   0029FA  EF01  F015         	goto	u1720
  3190   0029FE                     u1721:
  3191   0029FE  EF25  F015         	goto	l2708
  3192   002A02                     u1720:
  3193   002A02  0E01               	movlw	1
  3194   002A04  2616               	addwf	___fldiv@b^0,f,c
  3195   002A06  0E00               	movlw	0
  3196   002A08  2217               	addwfc	(___fldiv@b+1)^0,f,c
  3197   002A0A  2218               	addwfc	(___fldiv@b+2)^0,f,c
  3198   002A0C  2219               	addwfc	(___fldiv@b+3)^0,f,c
  3199   002A0E  A019               	btfss	(___fldiv@b+3)^0,0,c
  3200   002A10  EF0C  F015         	goto	u1731
  3201   002A14  EF0E  F015         	goto	u1730
  3202   002A18                     u1731:
  3203   002A18  EF25  F015         	goto	l2708
  3204   002A1C                     u1730:
  3205   002A1C  C016  F01E         	movff	___fldiv@b,??___fldiv
  3206   002A20  C017  F01F         	movff	___fldiv@b+1,??___fldiv+1
  3207   002A24  C018  F020         	movff	___fldiv@b+2,??___fldiv+2
  3208   002A28  C019  F021         	movff	___fldiv@b+3,??___fldiv+3
  3209   002A2C  3421               	rlcf	(??___fldiv+3)^0,w,c
  3210   002A2E  3221               	rrcf	(??___fldiv+3)^0,f,c
  3211   002A30  3220               	rrcf	(??___fldiv+2)^0,f,c
  3212   002A32  321F               	rrcf	(??___fldiv+1)^0,f,c
  3213   002A34  321E               	rrcf	??___fldiv^0,f,c
  3214   002A36  C01E  F016         	movff	??___fldiv,___fldiv@b
  3215   002A3A  C01F  F017         	movff	??___fldiv+1,___fldiv@b+1
  3216   002A3E  C020  F018         	movff	??___fldiv+2,___fldiv@b+2
  3217   002A42  C021  F019         	movff	??___fldiv+3,___fldiv@b+3
  3218   002A46  4A27               	infsnz	___fldiv@new_exp^0,f,c
  3219   002A48  2A28               	incf	(___fldiv@new_exp+1)^0,f,c
  3220   002A4A                     l2708:
  3221   002A4A  BE28               	btfsc	(___fldiv@new_exp+1)^0,7,c
  3222   002A4C  EF30  F015         	goto	u1741
  3223   002A50  5028               	movf	(___fldiv@new_exp+1)^0,w,c
  3224   002A52  E108               	bnz	u1740
  3225   002A54  2827               	incf	___fldiv@new_exp^0,w,c
  3226   002A56  A0D8               	btfss	status,0,c
  3227   002A58  EF30  F015         	goto	u1741
  3228   002A5C  EF32  F015         	goto	u1740
  3229   002A60                     u1741:
  3230   002A60  EF3D  F015         	goto	l2712
  3231   002A64                     u1740:
  3232   002A64  0E00               	movlw	0
  3233   002A66  6E28               	movwf	(___fldiv@new_exp+1)^0,c
  3234   002A68  6827               	setf	___fldiv@new_exp^0,c
  3235   002A6A  0E00               	movlw	0
  3236   002A6C  6E16               	movwf	___fldiv@b^0,c
  3237   002A6E  0E00               	movlw	0
  3238   002A70  6E17               	movwf	(___fldiv@b+1)^0,c
  3239   002A72  0E00               	movlw	0
  3240   002A74  6E18               	movwf	(___fldiv@b+2)^0,c
  3241   002A76  0E00               	movlw	0
  3242   002A78  6E19               	movwf	(___fldiv@b+3)^0,c
  3243   002A7A                     l2712:
  3244   002A7A  BE28               	btfsc	(___fldiv@new_exp+1)^0,7,c
  3245   002A7C  EF4A  F015         	goto	u1750
  3246   002A80  5028               	movf	(___fldiv@new_exp+1)^0,w,c
  3247   002A82  E106               	bnz	u1751
  3248   002A84  0427               	decf	___fldiv@new_exp^0,w,c
  3249   002A86  B0D8               	btfsc	status,0,c
  3250   002A88  EF48  F015         	goto	u1751
  3251   002A8C  EF4A  F015         	goto	u1750
  3252   002A90                     u1751:
  3253   002A90  EF58  F015         	goto	l2716
  3254   002A94                     u1750:
  3255   002A94  0E00               	movlw	0
  3256   002A96  6E28               	movwf	(___fldiv@new_exp+1)^0,c
  3257   002A98  0E00               	movlw	0
  3258   002A9A  6E27               	movwf	___fldiv@new_exp^0,c
  3259   002A9C  0E00               	movlw	0
  3260   002A9E  6E16               	movwf	___fldiv@b^0,c
  3261   002AA0  0E00               	movlw	0
  3262   002AA2  6E17               	movwf	(___fldiv@b+1)^0,c
  3263   002AA4  0E00               	movlw	0
  3264   002AA6  6E18               	movwf	(___fldiv@b+2)^0,c
  3265   002AA8  0E00               	movlw	0
  3266   002AAA  6E19               	movwf	(___fldiv@b+3)^0,c
  3267   002AAC  0E00               	movlw	0
  3268   002AAE  6E26               	movwf	___fldiv@sign^0,c
  3269   002AB0                     l2716:
  3270   002AB0  C027  F02D         	movff	___fldiv@new_exp,___fldiv@bexp
  3271   002AB4  A02D               	btfss	___fldiv@bexp^0,0,c
  3272   002AB6  EF5F  F015         	goto	u1761
  3273   002ABA  EF61  F015         	goto	u1760
  3274   002ABE                     u1761:
  3275   002ABE  EF64  F015         	goto	l2722
  3276   002AC2                     u1760:
  3277   002AC2  8E18               	bsf	(___fldiv@b+2)^0,7,c
  3278   002AC4  EF65  F015         	goto	l2724
  3279   002AC8                     l2722:
  3280   002AC8  9E18               	bcf	(___fldiv@b+2)^0,7,c
  3281   002ACA                     l2724:
  3282   002ACA  90D8               	bcf	status,0,c
  3283   002ACC  302D               	rrcf	___fldiv@bexp^0,w,c
  3284   002ACE  6E19               	movwf	(___fldiv@b+3)^0,c
  3285   002AD0  EF1B  F014         	goto	l2638
  3286   002AD4                     l1105:
  3287   002AD4  0012               	return		;funcret
  3288   002AD6                     __end_of___fldiv:
  3289                           	callstack 0
  3290                           
  3291 ;; *************** function _set_time *****************
  3292 ;; Defined at:
  3293 ;;		line 310 in file "main.c"
  3294 ;; Parameters:    Size  Location     Type
  3295 ;;		None
  3296 ;; Auto vars:     Size  Location     Type
  3297 ;;  delay1          4   11[COMRAM] unsigned long 
  3298 ;;  buffer          1   15[COMRAM] unsigned char 
  3299 ;; Return value:  Size  Location     Type
  3300 ;;                  1    wreg      void 
  3301 ;; Registers used:
  3302 ;;		wreg, fsr0l, fsr0h, fsr2l, fsr2h, status,2, status,0, tblptrl, tblptrh, tblptru, prodl, prodh, cstack
  3303 ;; Tracked objects:
  3304 ;;		On entry : 0/0
  3305 ;;		On exit  : 0/0
  3306 ;;		Unchanged: 0/0
  3307 ;; Data sizes:     COMRAM   BANK0   BANK1   BANK2   BANK3   BANK4   BANK5
  3308 ;;      Params:         0       0       0       0       0       0       0
  3309 ;;      Locals:         5       0       0       0       0       0       0
  3310 ;;      Temps:          2       0       0       0       0       0       0
  3311 ;;      Totals:         7       0       0       0       0       0       0
  3312 ;;Total ram usage:        7 bytes
  3313 ;; Hardware stack levels used: 1
  3314 ;; Hardware stack levels required when called: 5
  3315 ;; This function calls:
  3316 ;;		___lwdiv
  3317 ;;		___lwmod
  3318 ;;		_clcd_print
  3319 ;;		_clcd_putch
  3320 ;;		_clcd_write
  3321 ;;		_get_time
  3322 ;;		_write_ds1307
  3323 ;; This function is called by:
  3324 ;;		_main
  3325 ;; This function uses a non-reentrant model
  3326 ;;
  3327                           
  3328                           	psect	text11
  3329   002AD6                     __ptext11:
  3330                           	callstack 0
  3331   002AD6                     _set_time:
  3332                           	callstack 25
  3333   002AD6                     
  3334                           ;main.c: 312:     static unsigned int new_time[3];;main.c: 313:     static unsigned int 
      +                          blink_pos = 0;;main.c: 314:     static unsigned char blink_delay = 0,once = 0;;main.c: 3
      +                          15:     char buffer;;main.c: 317:     if (once == 0)
  3335   002AD6  5050               	movf	set_time@once^0,w,c
  3336   002AD8  A4D8               	btfss	status,2,c
  3337   002ADA  EF71  F015         	goto	u2271
  3338   002ADE  EF73  F015         	goto	u2270
  3339   002AE2                     u2271:
  3340   002AE2  EFA8  F015         	goto	l3110
  3341   002AE6                     u2270:
  3342   002AE6                     
  3343                           ;main.c: 318:     {;main.c: 319:         once = 1;
  3344   002AE6  0E01               	movlw	1
  3345   002AE8  6E50               	movwf	set_time@once^0,c
  3346   002AEA                     
  3347                           ;main.c: 320:         get_time();
  3348   002AEA  EC25  F00C         	call	_get_time	;wreg free
  3349   002AEE                     
  3350                           ;main.c: 322:         new_time[0] = (time[0] - '0') * 10 + (time[1] - '0');
  3351   002AEE  0100               	movlb	0	; () banked
  3352   002AF0  51BE               	movf	_time& (0+255),w,b
  3353   002AF2  0D0A               	mullw	10
  3354   002AF4  CFF3 F00A          	movff	prodl,??_set_time
  3355   002AF8  CFF4 F00B          	movff	prodh,??_set_time+1
  3356   002AFC  51BF               	movf	(_time+1)& (0+255),w,b
  3357   002AFE  260A               	addwf	??_set_time^0,f,c
  3358   002B00  0E00               	movlw	0
  3359   002B02  220B               	addwfc	(??_set_time+1)^0,f,c
  3360   002B04  0EF0               	movlw	240
  3361   002B06  240A               	addwf	??_set_time^0,w,c
  3362   002B08  6E3C               	movwf	set_time@new_time^0,c
  3363   002B0A  0EFD               	movlw	253
  3364   002B0C  200B               	addwfc	(??_set_time+1)^0,w,c
  3365   002B0E  6E3D               	movwf	(set_time@new_time+1)^0,c
  3366   002B10                     
  3367                           ; BSR set to: 0
  3368                           ;main.c: 323:         new_time[1] = (time[3] - '0') * 10 + (time[4] - '0');
  3369   002B10  51C1               	movf	(_time+3)& (0+255),w,b
  3370   002B12  0D0A               	mullw	10
  3371   002B14  CFF3 F00A          	movff	prodl,??_set_time
  3372   002B18  CFF4 F00B          	movff	prodh,??_set_time+1
  3373   002B1C  51C2               	movf	(_time+4)& (0+255),w,b
  3374   002B1E  260A               	addwf	??_set_time^0,f,c
  3375   002B20  0E00               	movlw	0
  3376   002B22  220B               	addwfc	(??_set_time+1)^0,f,c
  3377   002B24  0EF0               	movlw	240
  3378   002B26  240A               	addwf	??_set_time^0,w,c
  3379   002B28  6E3E               	movwf	(set_time@new_time+2)^0,c
  3380   002B2A  0EFD               	movlw	253
  3381   002B2C  200B               	addwfc	(??_set_time+1)^0,w,c
  3382   002B2E  6E3F               	movwf	(set_time@new_time+3)^0,c
  3383   002B30                     
  3384                           ; BSR set to: 0
  3385                           ;main.c: 324:         new_time[2] = (time[6] - '0') * 10 + (time[7] - '0');
  3386   002B30  51C4               	movf	(_time+6)& (0+255),w,b
  3387   002B32  0D0A               	mullw	10
  3388   002B34  CFF3 F00A          	movff	prodl,??_set_time
  3389   002B38  CFF4 F00B          	movff	prodh,??_set_time+1
  3390   002B3C  51C5               	movf	(_time+7)& (0+255),w,b
  3391   002B3E  260A               	addwf	??_set_time^0,f,c
  3392   002B40  0E00               	movlw	0
  3393   002B42  220B               	addwfc	(??_set_time+1)^0,f,c
  3394   002B44  0EF0               	movlw	240
  3395   002B46  240A               	addwf	??_set_time^0,w,c
  3396   002B48  6E40               	movwf	(set_time@new_time+4)^0,c
  3397   002B4A  0EFD               	movlw	253
  3398   002B4C  200B               	addwfc	(??_set_time+1)^0,w,c
  3399   002B4E  6E41               	movwf	(set_time@new_time+5)^0,c
  3400   002B50                     l3110:
  3401                           
  3402                           ;main.c: 327:     clcd_print(" HH:MM:SS       ", (0x80 + (0)));
  3403   002B50  0E4A               	movlw	low STR_19
  3404   002B52  6E03               	movwf	clcd_print@data^0,c
  3405   002B54  0E2F               	movlw	high STR_19
  3406   002B56  6E04               	movwf	(clcd_print@data+1)^0,c
  3407   002B58  0E80               	movlw	128
  3408   002B5A  6E05               	movwf	clcd_print@addr^0,c
  3409   002B5C  EC0D  F00B         	call	_clcd_print	;wreg free
  3410                           
  3411                           ;main.c: 328:     switch(key)
  3412   002B60  EF80  F016         	goto	l3150
  3413   002B64                     l3112:
  3414                           
  3415                           ;main.c: 331:             new_time[blink_pos]++;
  3416   002B64  5049               	movf	set_time@blink_pos^0,w,c
  3417   002B66  0D02               	mullw	2
  3418   002B68  50F3               	movf	243,w,c
  3419   002B6A  0F3C               	addlw	low set_time@new_time
  3420   002B6C  6ED9               	movwf	fsr2l,c
  3421   002B6E  6ADA               	clrf	fsr2h,c
  3422   002B70  2ADE               	incf	postinc2,f,c
  3423   002B72  0E00               	movlw	0
  3424   002B74  22DD               	addwfc	postdec2,f,c
  3425                           
  3426                           ;main.c: 332:             break;
  3427   002B76  EF93  F016         	goto	l3152
  3428   002B7A                     l3114:
  3429                           
  3430                           ;main.c: 334:             blink_pos = (blink_pos + 1) % 3;
  3431   002B7A  0E01               	movlw	1
  3432   002B7C  2449               	addwf	set_time@blink_pos^0,w,c
  3433   002B7E  6E01               	movwf	___lwmod@dividend^0,c
  3434   002B80  0E00               	movlw	0
  3435   002B82  204A               	addwfc	(set_time@blink_pos+1)^0,w,c
  3436   002B84  6E02               	movwf	(___lwmod@dividend+1)^0,c
  3437   002B86  0E00               	movlw	0
  3438   002B88  6E04               	movwf	(___lwmod@divisor+1)^0,c
  3439   002B8A  0E03               	movlw	3
  3440   002B8C  6E03               	movwf	___lwmod@divisor^0,c
  3441   002B8E  ECDB  F00A         	call	___lwmod	;wreg free
  3442   002B92  C001  F049         	movff	?___lwmod,set_time@blink_pos
  3443   002B96  C002  F04A         	movff	?___lwmod+1,set_time@blink_pos+1
  3444                           
  3445                           ;main.c: 335:             break;
  3446   002B9A  EF93  F016         	goto	l3152
  3447   002B9E                     l3116:
  3448                           
  3449                           ;main.c: 337:             get_time();
  3450   002B9E  EC25  F00C         	call	_get_time	;wreg free
  3451                           
  3452                           ;main.c: 339:             buffer = ((new_time[0] / 10) << 4) | new_time[0] % 10;
  3453   002BA2  C03C  F001         	movff	set_time@new_time,___lwmod@dividend
  3454   002BA6  C03D  F002         	movff	set_time@new_time+1,___lwmod@dividend+1
  3455   002BAA  0E00               	movlw	0
  3456   002BAC  6E04               	movwf	(___lwmod@divisor+1)^0,c
  3457   002BAE  0E0A               	movlw	10
  3458   002BB0  6E03               	movwf	___lwmod@divisor^0,c
  3459   002BB2  ECDB  F00A         	call	___lwmod	;wreg free
  3460   002BB6  C001  F00A         	movff	?___lwmod,??_set_time
  3461   002BBA  C002  F00B         	movff	?___lwmod+1,??_set_time+1
  3462   002BBE  C03C  F001         	movff	set_time@new_time,___lwdiv@dividend
  3463   002BC2  C03D  F002         	movff	set_time@new_time+1,___lwdiv@dividend+1
  3464   002BC6  0E00               	movlw	0
  3465   002BC8  6E04               	movwf	(___lwdiv@divisor+1)^0,c
  3466   002BCA  0E0A               	movlw	10
  3467   002BCC  6E03               	movwf	___lwdiv@divisor^0,c
  3468   002BCE  ECB0  F00B         	call	___lwdiv	;wreg free
  3469   002BD2  3801               	swapf	?___lwdiv^0,w,c
  3470   002BD4  0BF0               	andlw	240
  3471   002BD6  100A               	iorwf	??_set_time^0,w,c
  3472   002BD8  6E10               	movwf	set_time@buffer^0,c
  3473   002BDA                     
  3474                           ;main.c: 340:             clock_reg[0] = (clock_reg[0] & 0xC0) | buffer;
  3475   002BDA  5046               	movf	_clock_reg^0,w,c
  3476   002BDC  0BC0               	andlw	192
  3477   002BDE  1010               	iorwf	set_time@buffer^0,w,c
  3478   002BE0  6E46               	movwf	_clock_reg^0,c
  3479   002BE2                     
  3480                           ;main.c: 341:             write_ds1307(0x02, clock_reg[0]);
  3481   002BE2  C046  F002         	movff	_clock_reg,write_ds1307@data
  3482   002BE6  0E02               	movlw	2
  3483   002BE8  ECC9  F009         	call	_write_ds1307
  3484   002BEC                     
  3485                           ;main.c: 343:             buffer = ((new_time[1] / 10) << 4) | new_time[1] % 10;
  3486   002BEC  C03E  F001         	movff	set_time@new_time+2,___lwmod@dividend
  3487   002BF0  C03F  F002         	movff	set_time@new_time+3,___lwmod@dividend+1
  3488   002BF4  0E00               	movlw	0
  3489   002BF6  6E04               	movwf	(___lwmod@divisor+1)^0,c
  3490   002BF8  0E0A               	movlw	10
  3491   002BFA  6E03               	movwf	___lwmod@divisor^0,c
  3492   002BFC  ECDB  F00A         	call	___lwmod	;wreg free
  3493   002C00  C001  F00A         	movff	?___lwmod,??_set_time
  3494   002C04  C002  F00B         	movff	?___lwmod+1,??_set_time+1
  3495   002C08  C03E  F001         	movff	set_time@new_time+2,___lwdiv@dividend
  3496   002C0C  C03F  F002         	movff	set_time@new_time+3,___lwdiv@dividend+1
  3497   002C10  0E00               	movlw	0
  3498   002C12  6E04               	movwf	(___lwdiv@divisor+1)^0,c
  3499   002C14  0E0A               	movlw	10
  3500   002C16  6E03               	movwf	___lwdiv@divisor^0,c
  3501   002C18  ECB0  F00B         	call	___lwdiv	;wreg free
  3502   002C1C  3801               	swapf	?___lwdiv^0,w,c
  3503   002C1E  0BF0               	andlw	240
  3504   002C20  100A               	iorwf	??_set_time^0,w,c
  3505   002C22  6E10               	movwf	set_time@buffer^0,c
  3506   002C24                     
  3507                           ;main.c: 344:             clock_reg[1] = (clock_reg[1] & 0x80) | buffer;
  3508   002C24  5047               	movf	(_clock_reg+1)^0,w,c
  3509   002C26  0B80               	andlw	128
  3510   002C28  1010               	iorwf	set_time@buffer^0,w,c
  3511   002C2A  6E47               	movwf	(_clock_reg+1)^0,c
  3512                           
  3513                           ;main.c: 345:             write_ds1307(0x01, clock_reg[1]);
  3514   002C2C  C047  F002         	movff	_clock_reg+1,write_ds1307@data
  3515   002C30  0E01               	movlw	1
  3516   002C32  ECC9  F009         	call	_write_ds1307
  3517   002C36                     
  3518                           ;main.c: 347:             buffer = ((new_time[2] / 10) << 4) | new_time[2] % 10;
  3519   002C36  C040  F001         	movff	set_time@new_time+4,___lwmod@dividend
  3520   002C3A  C041  F002         	movff	set_time@new_time+5,___lwmod@dividend+1
  3521   002C3E  0E00               	movlw	0
  3522   002C40  6E04               	movwf	(___lwmod@divisor+1)^0,c
  3523   002C42  0E0A               	movlw	10
  3524   002C44  6E03               	movwf	___lwmod@divisor^0,c
  3525   002C46  ECDB  F00A         	call	___lwmod	;wreg free
  3526   002C4A  C001  F00A         	movff	?___lwmod,??_set_time
  3527   002C4E  C002  F00B         	movff	?___lwmod+1,??_set_time+1
  3528   002C52  C040  F001         	movff	set_time@new_time+4,___lwdiv@dividend
  3529   002C56  C041  F002         	movff	set_time@new_time+5,___lwdiv@dividend+1
  3530   002C5A  0E00               	movlw	0
  3531   002C5C  6E04               	movwf	(___lwdiv@divisor+1)^0,c
  3532   002C5E  0E0A               	movlw	10
  3533   002C60  6E03               	movwf	___lwdiv@divisor^0,c
  3534   002C62  ECB0  F00B         	call	___lwdiv	;wreg free
  3535   002C66  3801               	swapf	?___lwdiv^0,w,c
  3536   002C68  0BF0               	andlw	240
  3537   002C6A  100A               	iorwf	??_set_time^0,w,c
  3538   002C6C  6E10               	movwf	set_time@buffer^0,c
  3539   002C6E                     
  3540                           ;main.c: 348:             clock_reg[2] = (clock_reg[2] & 0x80) | buffer;
  3541   002C6E  5048               	movf	(_clock_reg+2)^0,w,c
  3542   002C70  0B80               	andlw	128
  3543   002C72  1010               	iorwf	set_time@buffer^0,w,c
  3544   002C74  6E48               	movwf	(_clock_reg+2)^0,c
  3545   002C76                     
  3546                           ;main.c: 349:             write_ds1307(0x00, clock_reg[2]);
  3547   002C76  C048  F002         	movff	_clock_reg+2,write_ds1307@data
  3548   002C7A  0E00               	movlw	0
  3549   002C7C  ECC9  F009         	call	_write_ds1307
  3550   002C80                     
  3551                           ;main.c: 350:             clcd_write(0x01, 0);
  3552   002C80  0E00               	movlw	0
  3553   002C82  6E01               	movwf	clcd_write@control_bit^0,c
  3554   002C84  0E01               	movlw	1
  3555   002C86  EC4C  F00A         	call	_clcd_write
  3556   002C8A                     
  3557                           ;main.c: 351:             clcd_print("Time changed    ", (0x80 + (0)));
  3558   002C8A  0E6C               	movlw	low STR_20
  3559   002C8C  6E03               	movwf	clcd_print@data^0,c
  3560   002C8E  0E2F               	movlw	high STR_20
  3561   002C90  6E04               	movwf	(clcd_print@data+1)^0,c
  3562   002C92  0E80               	movlw	128
  3563   002C94  6E05               	movwf	clcd_print@addr^0,c
  3564   002C96  EC0D  F00B         	call	_clcd_print	;wreg free
  3565   002C9A                     
  3566                           ;main.c: 352:             clcd_print("Successfully :-)", (0xC0 + (0)));
  3567   002C9A  0EC1               	movlw	low STR_21
  3568   002C9C  6E03               	movwf	clcd_print@data^0,c
  3569   002C9E  0E2F               	movlw	high STR_21
  3570   002CA0  6E04               	movwf	(clcd_print@data+1)^0,c
  3571   002CA2  0EC0               	movlw	192
  3572   002CA4  6E05               	movwf	clcd_print@addr^0,c
  3573   002CA6  EC0D  F00B         	call	_clcd_print	;wreg free
  3574                           
  3575                           ;main.c: 353:             for(unsigned long int delay1 = 1000000;delay1--;);
  3576   002CAA  0E40               	movlw	64
  3577   002CAC  6E0C               	movwf	set_time@delay1^0,c
  3578   002CAE  0E42               	movlw	66
  3579   002CB0  6E0D               	movwf	(set_time@delay1+1)^0,c
  3580   002CB2  0E0F               	movlw	15
  3581   002CB4  6E0E               	movwf	(set_time@delay1+2)^0,c
  3582   002CB6  0E00               	movlw	0
  3583   002CB8  6E0F               	movwf	(set_time@delay1+3)^0,c
  3584   002CBA                     l3138:
  3585   002CBA  060C               	decf	set_time@delay1^0,f,c
  3586   002CBC  0E00               	movlw	0
  3587   002CBE  5A0D               	subwfb	(set_time@delay1+1)^0,f,c
  3588   002CC0  5A0E               	subwfb	(set_time@delay1+2)^0,f,c
  3589   002CC2  5A0F               	subwfb	(set_time@delay1+3)^0,f,c
  3590   002CC4  280C               	incf	set_time@delay1^0,w,c
  3591   002CC6  E10A               	bnz	u2281
  3592   002CC8  280D               	incf	(set_time@delay1+1)^0,w,c
  3593   002CCA  E108               	bnz	u2281
  3594   002CCC  280E               	incf	(set_time@delay1+2)^0,w,c
  3595   002CCE  E106               	bnz	u2281
  3596   002CD0  280F               	incf	(set_time@delay1+3)^0,w,c
  3597   002CD2  A4D8               	btfss	status,2,c
  3598   002CD4  EF6E  F016         	goto	u2281
  3599   002CD8  EF70  F016         	goto	u2280
  3600   002CDC                     u2281:
  3601   002CDC  EF5D  F016         	goto	l3138
  3602   002CE0                     u2280:
  3603   002CE0                     
  3604                           ;main.c: 354:             clcd_write(0x01, 0);
  3605   002CE0  0E00               	movlw	0
  3606   002CE2  6E01               	movwf	clcd_write@control_bit^0,c
  3607   002CE4  0E01               	movlw	1
  3608   002CE6  EC4C  F00A         	call	_clcd_write
  3609   002CEA                     l3142:
  3610                           
  3611                           ;main.c: 355:             state = e_dashboard;
  3612   002CEA  0E00               	movlw	0
  3613   002CEC  6E58               	movwf	_state^0,c
  3614                           
  3615                           ;main.c: 356:             break;
  3616   002CEE  EF93  F016         	goto	l3152
  3617   002CF2                     l3144:
  3618                           
  3619                           ;main.c: 358:             clcd_write(0x01, 0);
  3620   002CF2  0E00               	movlw	0
  3621   002CF4  6E01               	movwf	clcd_write@control_bit^0,c
  3622   002CF6  0E01               	movlw	1
  3623   002CF8  EC4C  F00A         	call	_clcd_write
  3624   002CFC  EF75  F016         	goto	l3142
  3625   002D00                     l3150:
  3626   002D00  5057               	movf	_key^0,w,c
  3627                           
  3628                           ; Switch size 1, requested type "simple"
  3629                           ; Number of cases is 4, Range of values is 1 to 12
  3630                           ; switch strategies available:
  3631                           ; Name         Instructions Cycles
  3632                           ; simple_byte           13     7 (average)
  3633                           ;	Chosen strategy is simple_byte
  3634   002D02  0A01               	xorlw	1	; case 1
  3635   002D04  B4D8               	btfsc	status,2,c
  3636   002D06  EFB2  F015         	goto	l3112
  3637   002D0A  0A03               	xorlw	3	; case 2
  3638   002D0C  B4D8               	btfsc	status,2,c
  3639   002D0E  EFBD  F015         	goto	l3114
  3640   002D12  0A09               	xorlw	9	; case 11
  3641   002D14  B4D8               	btfsc	status,2,c
  3642   002D16  EFCF  F015         	goto	l3116
  3643   002D1A  0A07               	xorlw	7	; case 12
  3644   002D1C  B4D8               	btfsc	status,2,c
  3645   002D1E  EF79  F016         	goto	l3144
  3646   002D22  EF93  F016         	goto	l3152
  3647   002D26                     l3152:
  3648                           
  3649                           ;main.c: 363:     if (new_time[0] > 23)
  3650   002D26  503D               	movf	(set_time@new_time+1)^0,w,c
  3651   002D28  E109               	bnz	u2290
  3652   002D2A  0E18               	movlw	24
  3653   002D2C  5C3C               	subwf	set_time@new_time^0,w,c
  3654   002D2E  A0D8               	btfss	status,0,c
  3655   002D30  EF9C  F016         	goto	u2291
  3656   002D34  EF9E  F016         	goto	u2290
  3657   002D38                     u2291:
  3658   002D38  EFA2  F016         	goto	l3156
  3659   002D3C                     u2290:
  3660   002D3C                     
  3661                           ;main.c: 364:         new_time[0] = 0;
  3662   002D3C  0E00               	movlw	0
  3663   002D3E  6E3D               	movwf	(set_time@new_time+1)^0,c
  3664   002D40  0E00               	movlw	0
  3665   002D42  6E3C               	movwf	set_time@new_time^0,c
  3666   002D44                     l3156:
  3667                           
  3668                           ;main.c: 365:     if (new_time[1] > 59)
  3669   002D44  503F               	movf	(set_time@new_time+3)^0,w,c
  3670   002D46  E109               	bnz	u2300
  3671   002D48  0E3C               	movlw	60
  3672   002D4A  5C3E               	subwf	(set_time@new_time+2)^0,w,c
  3673   002D4C  A0D8               	btfss	status,0,c
  3674   002D4E  EFAB  F016         	goto	u2301
  3675   002D52  EFAD  F016         	goto	u2300
  3676   002D56                     u2301:
  3677   002D56  EFB1  F016         	goto	l3160
  3678   002D5A                     u2300:
  3679   002D5A                     
  3680                           ;main.c: 366:         new_time[1] = 0;
  3681   002D5A  0E00               	movlw	0
  3682   002D5C  6E3F               	movwf	(set_time@new_time+3)^0,c
  3683   002D5E  0E00               	movlw	0
  3684   002D60  6E3E               	movwf	(set_time@new_time+2)^0,c
  3685   002D62                     l3160:
  3686                           
  3687                           ;main.c: 367:     if (new_time[2] > 59)
  3688   002D62  5041               	movf	(set_time@new_time+5)^0,w,c
  3689   002D64  E109               	bnz	u2310
  3690   002D66  0E3C               	movlw	60
  3691   002D68  5C40               	subwf	(set_time@new_time+4)^0,w,c
  3692   002D6A  A0D8               	btfss	status,0,c
  3693   002D6C  EFBA  F016         	goto	u2311
  3694   002D70  EFBC  F016         	goto	u2310
  3695   002D74                     u2311:
  3696   002D74  EFC0  F016         	goto	l3164
  3697   002D78                     u2310:
  3698   002D78                     
  3699                           ;main.c: 368:         new_time[2] = 0;
  3700   002D78  0E00               	movlw	0
  3701   002D7A  6E41               	movwf	(set_time@new_time+5)^0,c
  3702   002D7C  0E00               	movlw	0
  3703   002D7E  6E40               	movwf	(set_time@new_time+4)^0,c
  3704   002D80                     l3164:
  3705                           
  3706                           ;main.c: 370:     if(blink_delay < 50)
  3707   002D80  0E32               	movlw	50
  3708   002D82  6051               	cpfslt	set_time@blink_delay^0,c
  3709   002D84  EFC6  F016         	goto	u2321
  3710   002D88  EFC8  F016         	goto	u2320
  3711   002D8C                     u2321:
  3712   002D8C  EF35  F017         	goto	l3178
  3713   002D90                     u2320:
  3714   002D90                     
  3715                           ;main.c: 371:     {;main.c: 373:         clcd_putch(new_time[0] / 10 + '0', (0xC0 + (1))
      +                          );
  3716   002D90  0EC1               	movlw	193
  3717   002D92  6E08               	movwf	clcd_putch@addr^0,c
  3718   002D94  C03C  F001         	movff	set_time@new_time,___lwdiv@dividend
  3719   002D98  C03D  F002         	movff	set_time@new_time+1,___lwdiv@dividend+1
  3720   002D9C  0E00               	movlw	0
  3721   002D9E  6E04               	movwf	(___lwdiv@divisor+1)^0,c
  3722   002DA0  0E0A               	movlw	10
  3723   002DA2  6E03               	movwf	___lwdiv@divisor^0,c
  3724   002DA4  ECB0  F00B         	call	___lwdiv	;wreg free
  3725   002DA8  5001               	movf	?___lwdiv^0,w,c
  3726   002DAA  0F30               	addlw	48
  3727   002DAC  ECA4  F009         	call	_clcd_putch
  3728                           
  3729                           ;main.c: 374:         clcd_putch(new_time[0] % 10 + '0', (0xC0 + (2)));
  3730   002DB0  0EC2               	movlw	194
  3731   002DB2  6E08               	movwf	clcd_putch@addr^0,c
  3732   002DB4  C03C  F001         	movff	set_time@new_time,___lwmod@dividend
  3733   002DB8  C03D  F002         	movff	set_time@new_time+1,___lwmod@dividend+1
  3734   002DBC  0E00               	movlw	0
  3735   002DBE  6E04               	movwf	(___lwmod@divisor+1)^0,c
  3736   002DC0  0E0A               	movlw	10
  3737   002DC2  6E03               	movwf	___lwmod@divisor^0,c
  3738   002DC4  ECDB  F00A         	call	___lwmod	;wreg free
  3739   002DC8  5001               	movf	?___lwmod^0,w,c
  3740   002DCA  0F30               	addlw	48
  3741   002DCC  ECA4  F009         	call	_clcd_putch
  3742   002DD0                     
  3743                           ;main.c: 375:         clcd_putch(':', (0xC0 + (3)));
  3744   002DD0  0EC3               	movlw	195
  3745   002DD2  6E08               	movwf	clcd_putch@addr^0,c
  3746   002DD4  0E3A               	movlw	58
  3747   002DD6  ECA4  F009         	call	_clcd_putch
  3748   002DDA                     
  3749                           ;main.c: 377:         clcd_putch(new_time[1] / 10 + '0', (0xC0 + (4)));
  3750   002DDA  0EC4               	movlw	196
  3751   002DDC  6E08               	movwf	clcd_putch@addr^0,c
  3752   002DDE  C03E  F001         	movff	set_time@new_time+2,___lwdiv@dividend
  3753   002DE2  C03F  F002         	movff	set_time@new_time+3,___lwdiv@dividend+1
  3754   002DE6  0E00               	movlw	0
  3755   002DE8  6E04               	movwf	(___lwdiv@divisor+1)^0,c
  3756   002DEA  0E0A               	movlw	10
  3757   002DEC  6E03               	movwf	___lwdiv@divisor^0,c
  3758   002DEE  ECB0  F00B         	call	___lwdiv	;wreg free
  3759   002DF2  5001               	movf	?___lwdiv^0,w,c
  3760   002DF4  0F30               	addlw	48
  3761   002DF6  ECA4  F009         	call	_clcd_putch
  3762   002DFA                     
  3763                           ;main.c: 378:         clcd_putch(new_time[1] % 10 + '0', (0xC0 + (5)));
  3764   002DFA  0EC5               	movlw	197
  3765   002DFC  6E08               	movwf	clcd_putch@addr^0,c
  3766   002DFE  C03E  F001         	movff	set_time@new_time+2,___lwmod@dividend
  3767   002E02  C03F  F002         	movff	set_time@new_time+3,___lwmod@dividend+1
  3768   002E06  0E00               	movlw	0
  3769   002E08  6E04               	movwf	(___lwmod@divisor+1)^0,c
  3770   002E0A  0E0A               	movlw	10
  3771   002E0C  6E03               	movwf	___lwmod@divisor^0,c
  3772   002E0E  ECDB  F00A         	call	___lwmod	;wreg free
  3773   002E12  5001               	movf	?___lwmod^0,w,c
  3774   002E14  0F30               	addlw	48
  3775   002E16  ECA4  F009         	call	_clcd_putch
  3776   002E1A                     
  3777                           ;main.c: 379:         clcd_putch(':', (0xC0 + (6)));
  3778   002E1A  0EC6               	movlw	198
  3779   002E1C  6E08               	movwf	clcd_putch@addr^0,c
  3780   002E1E  0E3A               	movlw	58
  3781   002E20  ECA4  F009         	call	_clcd_putch
  3782                           
  3783                           ;main.c: 381:         clcd_putch(new_time[2] / 10 + '0', (0xC0 + (7)));
  3784   002E24  0EC7               	movlw	199
  3785   002E26  6E08               	movwf	clcd_putch@addr^0,c
  3786   002E28  C040  F001         	movff	set_time@new_time+4,___lwdiv@dividend
  3787   002E2C  C041  F002         	movff	set_time@new_time+5,___lwdiv@dividend+1
  3788   002E30  0E00               	movlw	0
  3789   002E32  6E04               	movwf	(___lwdiv@divisor+1)^0,c
  3790   002E34  0E0A               	movlw	10
  3791   002E36  6E03               	movwf	___lwdiv@divisor^0,c
  3792   002E38  ECB0  F00B         	call	___lwdiv	;wreg free
  3793   002E3C  5001               	movf	?___lwdiv^0,w,c
  3794   002E3E  0F30               	addlw	48
  3795   002E40  ECA4  F009         	call	_clcd_putch
  3796                           
  3797                           ;main.c: 382:         clcd_putch(new_time[2] % 10 + '0', (0xC0 + (8)));
  3798   002E44  0EC8               	movlw	200
  3799   002E46  6E08               	movwf	clcd_putch@addr^0,c
  3800   002E48  C040  F001         	movff	set_time@new_time+4,___lwmod@dividend
  3801   002E4C  C041  F002         	movff	set_time@new_time+5,___lwmod@dividend+1
  3802   002E50  0E00               	movlw	0
  3803   002E52  6E04               	movwf	(___lwmod@divisor+1)^0,c
  3804   002E54  0E0A               	movlw	10
  3805   002E56  6E03               	movwf	___lwmod@divisor^0,c
  3806   002E58  ECDB  F00A         	call	___lwmod	;wreg free
  3807   002E5C  5001               	movf	?___lwmod^0,w,c
  3808   002E5E  0F30               	addlw	48
  3809   002E60  ECA4  F009         	call	_clcd_putch
  3810   002E64                     l3176:
  3811                           
  3812                           ;main.c: 383:         blink_delay++;
  3813   002E64  2A51               	incf	set_time@blink_delay^0,f,c
  3814                           
  3815                           ;main.c: 384:     }
  3816   002E66  EF6F  F017         	goto	l224
  3817   002E6A                     l3178:
  3818                           
  3819                           ;main.c: 386:     {;main.c: 387:         if(blink_pos == 0){
  3820   002E6A  5049               	movf	set_time@blink_pos^0,w,c
  3821   002E6C  104A               	iorwf	(set_time@blink_pos+1)^0,w,c
  3822   002E6E  A4D8               	btfss	status,2,c
  3823   002E70  EF3C  F017         	goto	u2331
  3824   002E74  EF3E  F017         	goto	u2330
  3825   002E78                     u2331:
  3826   002E78  EF48  F017         	goto	l3182
  3827   002E7C                     u2330:
  3828   002E7C                     
  3829                           ;main.c: 388:             clcd_print("\xFF\xFF", (0xC0 + (1)));
  3830   002E7C  0EFB               	movlw	low STR_22
  3831   002E7E  6E03               	movwf	clcd_print@data^0,c
  3832   002E80  0E2F               	movlw	high STR_22
  3833   002E82  6E04               	movwf	(clcd_print@data+1)^0,c
  3834   002E84  0EC1               	movlw	193
  3835   002E86  6E05               	movwf	clcd_print@addr^0,c
  3836   002E88  EC0D  F00B         	call	_clcd_print	;wreg free
  3837                           
  3838                           ;main.c: 389:         }else if(blink_pos == 1){
  3839   002E8C  EF32  F017         	goto	l3176
  3840   002E90                     l3182:
  3841   002E90  0449               	decf	set_time@blink_pos^0,w,c
  3842   002E92  104A               	iorwf	(set_time@blink_pos+1)^0,w,c
  3843   002E94  A4D8               	btfss	status,2,c
  3844   002E96  EF4F  F017         	goto	u2341
  3845   002E9A  EF51  F017         	goto	u2340
  3846   002E9E                     u2341:
  3847   002E9E  EF5B  F017         	goto	l3186
  3848   002EA2                     u2340:
  3849   002EA2                     
  3850                           ;main.c: 390:             clcd_print("\xFF\xFF", (0xC0 + (4)));
  3851   002EA2  0EFB               	movlw	low STR_22
  3852   002EA4  6E03               	movwf	clcd_print@data^0,c
  3853   002EA6  0E2F               	movlw	high STR_22
  3854   002EA8  6E04               	movwf	(clcd_print@data+1)^0,c
  3855   002EAA  0EC4               	movlw	196
  3856   002EAC  6E05               	movwf	clcd_print@addr^0,c
  3857   002EAE  EC0D  F00B         	call	_clcd_print	;wreg free
  3858                           
  3859                           ;main.c: 391:         }else if(blink_pos == 2){
  3860   002EB2  EF32  F017         	goto	l3176
  3861   002EB6                     l3186:
  3862   002EB6  0E02               	movlw	2
  3863   002EB8  1849               	xorwf	set_time@blink_pos^0,w,c
  3864   002EBA  104A               	iorwf	(set_time@blink_pos+1)^0,w,c
  3865   002EBC  A4D8               	btfss	status,2,c
  3866   002EBE  EF63  F017         	goto	u2351
  3867   002EC2  EF65  F017         	goto	u2350
  3868   002EC6                     u2351:
  3869   002EC6  EF32  F017         	goto	l3176
  3870   002ECA                     u2350:
  3871   002ECA                     
  3872                           ;main.c: 392:             clcd_print("\xFF\xFF", (0xC0 + (7)));
  3873   002ECA  0EFB               	movlw	low STR_22
  3874   002ECC  6E03               	movwf	clcd_print@data^0,c
  3875   002ECE  0E2F               	movlw	high STR_22
  3876   002ED0  6E04               	movwf	(clcd_print@data+1)^0,c
  3877   002ED2  0EC7               	movlw	199
  3878   002ED4  6E05               	movwf	clcd_print@addr^0,c
  3879   002ED6  EC0D  F00B         	call	_clcd_print	;wreg free
  3880   002EDA  EF32  F017         	goto	l3176
  3881   002EDE                     l224:
  3882   002EDE  0012               	return		;funcret
  3883   002EE0                     __end_of_set_time:
  3884                           	callstack 0
  3885                           
  3886 ;; *************** function _get_time *****************
  3887 ;; Defined at:
  3888 ;;		line 402 in file "main.c"
  3889 ;; Parameters:    Size  Location     Type
  3890 ;;		None
  3891 ;; Auto vars:     Size  Location     Type
  3892 ;;		None
  3893 ;; Return value:  Size  Location     Type
  3894 ;;                  1    wreg      void 
  3895 ;; Registers used:
  3896 ;;		wreg, status,2, status,0, cstack
  3897 ;; Tracked objects:
  3898 ;;		On entry : 0/0
  3899 ;;		On exit  : 0/0
  3900 ;;		Unchanged: 0/0
  3901 ;; Data sizes:     COMRAM   BANK0   BANK1   BANK2   BANK3   BANK4   BANK5
  3902 ;;      Params:         0       0       0       0       0       0       0
  3903 ;;      Locals:         0       0       0       0       0       0       0
  3904 ;;      Temps:          0       0       0       0       0       0       0
  3905 ;;      Totals:         0       0       0       0       0       0       0
  3906 ;;Total ram usage:        0 bytes
  3907 ;; Hardware stack levels used: 1
  3908 ;; Hardware stack levels required when called: 4
  3909 ;; This function calls:
  3910 ;;		_read_ds1307
  3911 ;; This function is called by:
  3912 ;;		_main
  3913 ;;		_set_time
  3914 ;;		_display_time
  3915 ;; This function uses a non-reentrant model
  3916 ;;
  3917                           
  3918                           	psect	text12
  3919   00184A                     __ptext12:
  3920                           	callstack 0
  3921   00184A                     _get_time:
  3922                           	callstack 24
  3923   00184A                     
  3924                           ;main.c: 404:  clock_reg[0] = read_ds1307(0x02);
  3925   00184A  0E02               	movlw	2
  3926   00184C  EC1C  F00A         	call	_read_ds1307
  3927   001850  6E46               	movwf	_clock_reg^0,c
  3928                           
  3929                           ;main.c: 405:  clock_reg[1] = read_ds1307(0x01);
  3930   001852  0E01               	movlw	1
  3931   001854  EC1C  F00A         	call	_read_ds1307
  3932   001858  6E47               	movwf	(_clock_reg+1)^0,c
  3933                           
  3934                           ;main.c: 406:  clock_reg[2] = read_ds1307(0x00);
  3935   00185A  0E00               	movlw	0
  3936   00185C  EC1C  F00A         	call	_read_ds1307
  3937   001860  6E48               	movwf	(_clock_reg+2)^0,c
  3938   001862                     
  3939                           ;main.c: 408:  if (clock_reg[0] & 0x40)
  3940   001862  AC46               	btfss	_clock_reg^0,6,c
  3941   001864  EF36  F00C         	goto	u1321
  3942   001868  EF38  F00C         	goto	u1320
  3943   00186C                     u1321:
  3944   00186C  EF44  F00C         	goto	l2352
  3945   001870                     u1320:
  3946   001870                     
  3947                           ;main.c: 409:  {;main.c: 410:   time[0] = '0' + ((clock_reg[0] >> 4) & 0x01);
  3948   001870  3846               	swapf	_clock_reg^0,w,c
  3949   001872  0B0F               	andlw	15
  3950   001874  0B01               	andlw	1
  3951   001876  0F30               	addlw	48
  3952   001878  0100               	movlb	0	; () banked
  3953   00187A  6FBE               	movwf	_time& (0+255),b
  3954                           
  3955                           ;main.c: 411:   time[1] = '0' + (clock_reg[0] & 0x0F);
  3956   00187C  5046               	movf	_clock_reg^0,w,c
  3957   00187E  0B0F               	andlw	15
  3958   001880  0F30               	addlw	48
  3959   001882  6FBF               	movwf	(_time+1)& (0+255),b
  3960                           
  3961                           ;main.c: 412:  }
  3962   001884  EF4E  F00C         	goto	l2354
  3963   001888                     l2352:
  3964                           
  3965                           ;main.c: 414:  {;main.c: 415:   time[0] = '0' + ((clock_reg[0] >> 4) & 0x03);
  3966   001888  3846               	swapf	_clock_reg^0,w,c
  3967   00188A  0B0F               	andlw	15
  3968   00188C  0B03               	andlw	3
  3969   00188E  0F30               	addlw	48
  3970   001890  0100               	movlb	0	; () banked
  3971   001892  6FBE               	movwf	_time& (0+255),b
  3972                           
  3973                           ;main.c: 416:   time[1] = '0' + (clock_reg[0] & 0x0F);
  3974   001894  5046               	movf	_clock_reg^0,w,c
  3975   001896  0B0F               	andlw	15
  3976   001898  0F30               	addlw	48
  3977   00189A  6FBF               	movwf	(_time+1)& (0+255),b
  3978   00189C                     l2354:
  3979                           
  3980                           ; BSR set to: 0
  3981                           ;main.c: 419:  time[2] = ':';
  3982   00189C  0E3A               	movlw	58
  3983   00189E  6FC0               	movwf	(_time+2)& (0+255),b
  3984   0018A0                     
  3985                           ; BSR set to: 0
  3986                           ;main.c: 420:  time[3] = '0' + ((clock_reg[1] >> 4) & 0x0F);
  3987   0018A0  3847               	swapf	(_clock_reg+1)^0,w,c
  3988   0018A2  0B0F               	andlw	15
  3989   0018A4  0B0F               	andlw	15
  3990   0018A6  0F30               	addlw	48
  3991   0018A8  6FC1               	movwf	(_time+3)& (0+255),b
  3992   0018AA                     
  3993                           ; BSR set to: 0
  3994                           ;main.c: 421:  time[4] = '0' + (clock_reg[1] & 0x0F);
  3995   0018AA  5047               	movf	(_clock_reg+1)^0,w,c
  3996   0018AC  0B0F               	andlw	15
  3997   0018AE  0F30               	addlw	48
  3998   0018B0  6FC2               	movwf	(_time+4)& (0+255),b
  3999   0018B2                     
  4000                           ; BSR set to: 0
  4001                           ;main.c: 423:  time[5] = ':';
  4002   0018B2  0E3A               	movlw	58
  4003   0018B4  6FC3               	movwf	(_time+5)& (0+255),b
  4004                           
  4005                           ;main.c: 424:  time[6] = '0' + ((clock_reg[2] >> 4) & 0x0F);
  4006   0018B6  3848               	swapf	(_clock_reg+2)^0,w,c
  4007   0018B8  0B0F               	andlw	15
  4008   0018BA  0B0F               	andlw	15
  4009   0018BC  0F30               	addlw	48
  4010   0018BE  6FC4               	movwf	(_time+6)& (0+255),b
  4011                           
  4012                           ;main.c: 425:  time[7] = '0' + (clock_reg[2] & 0x0F);
  4013   0018C0  5048               	movf	(_clock_reg+2)^0,w,c
  4014   0018C2  0B0F               	andlw	15
  4015   0018C4  0F30               	addlw	48
  4016   0018C6  6FC5               	movwf	(_time+7)& (0+255),b
  4017   0018C8                     
  4018                           ; BSR set to: 0
  4019                           ;main.c: 426:  time[8] = '\0';
  4020   0018C8  0E00               	movlw	0
  4021   0018CA  6FC6               	movwf	(_time+8)& (0+255),b
  4022   0018CC                     
  4023                           ; BSR set to: 0
  4024   0018CC  0012               	return		;funcret
  4025   0018CE                     __end_of_get_time:
  4026                           	callstack 0
  4027                           
  4028 ;; *************** function ___lwmod *****************
  4029 ;; Defined at:
  4030 ;;		line 7 in file "C:\Program Files\Microchip\xc8\v2.46\pic\sources\c99\common\lwmod.c"
  4031 ;; Parameters:    Size  Location     Type
  4032 ;;  dividend        2    0[COMRAM] unsigned int 
  4033 ;;  divisor         2    2[COMRAM] unsigned int 
  4034 ;; Auto vars:     Size  Location     Type
  4035 ;;  counter         1    4[COMRAM] unsigned char 
  4036 ;; Return value:  Size  Location     Type
  4037 ;;                  2    0[COMRAM] unsigned int 
  4038 ;; Registers used:
  4039 ;;		wreg, status,2, status,0
  4040 ;; Tracked objects:
  4041 ;;		On entry : 0/0
  4042 ;;		On exit  : 0/0
  4043 ;;		Unchanged: 0/0
  4044 ;; Data sizes:     COMRAM   BANK0   BANK1   BANK2   BANK3   BANK4   BANK5
  4045 ;;      Params:         4       0       0       0       0       0       0
  4046 ;;      Locals:         1       0       0       0       0       0       0
  4047 ;;      Temps:          0       0       0       0       0       0       0
  4048 ;;      Totals:         5       0       0       0       0       0       0
  4049 ;;Total ram usage:        5 bytes
  4050 ;; Hardware stack levels used: 1
  4051 ;; This function calls:
  4052 ;;		Nothing
  4053 ;; This function is called by:
  4054 ;;		_view_dashboard
  4055 ;;		_set_time
  4056 ;; This function uses a non-reentrant model
  4057 ;;
  4058                           
  4059                           	psect	text13
  4060   0015B6                     __ptext13:
  4061                           	callstack 0
  4062   0015B6                     ___lwmod:
  4063                           	callstack 29
  4064   0015B6  5003               	movf	___lwmod@divisor^0,w,c
  4065   0015B8  1004               	iorwf	(___lwmod@divisor+1)^0,w,c
  4066   0015BA  B4D8               	btfsc	status,2,c
  4067   0015BC  EFE2  F00A         	goto	u1841
  4068   0015C0  EFE4  F00A         	goto	u1840
  4069   0015C4                     u1841:
  4070   0015C4  EF08  F00B         	goto	l1024
  4071   0015C8                     u1840:
  4072   0015C8  0E01               	movlw	1
  4073   0015CA  6E05               	movwf	___lwmod@counter^0,c
  4074   0015CC  EFEC  F00A         	goto	l2782
  4075   0015D0                     l2780:
  4076   0015D0  90D8               	bcf	status,0,c
  4077   0015D2  3603               	rlcf	___lwmod@divisor^0,f,c
  4078   0015D4  3604               	rlcf	(___lwmod@divisor+1)^0,f,c
  4079   0015D6  2A05               	incf	___lwmod@counter^0,f,c
  4080   0015D8                     l2782:
  4081   0015D8  AE04               	btfss	(___lwmod@divisor+1)^0,7,c
  4082   0015DA  EFF1  F00A         	goto	u1851
  4083   0015DE  EFF3  F00A         	goto	u1850
  4084   0015E2                     u1851:
  4085   0015E2  EFE8  F00A         	goto	l2780
  4086   0015E6                     u1850:
  4087   0015E6                     l2784:
  4088   0015E6  5003               	movf	___lwmod@divisor^0,w,c
  4089   0015E8  5C01               	subwf	___lwmod@dividend^0,w,c
  4090   0015EA  5004               	movf	(___lwmod@divisor+1)^0,w,c
  4091   0015EC  5802               	subwfb	(___lwmod@dividend+1)^0,w,c
  4092   0015EE  A0D8               	btfss	status,0,c
  4093   0015F0  EFFC  F00A         	goto	u1861
  4094   0015F4  EFFE  F00A         	goto	u1860
  4095   0015F8                     u1861:
  4096   0015F8  EF02  F00B         	goto	l2788
  4097   0015FC                     u1860:
  4098   0015FC  5003               	movf	___lwmod@divisor^0,w,c
  4099   0015FE  5E01               	subwf	___lwmod@dividend^0,f,c
  4100   001600  5004               	movf	(___lwmod@divisor+1)^0,w,c
  4101   001602  5A02               	subwfb	(___lwmod@dividend+1)^0,f,c
  4102   001604                     l2788:
  4103   001604  90D8               	bcf	status,0,c
  4104   001606  3204               	rrcf	(___lwmod@divisor+1)^0,f,c
  4105   001608  3203               	rrcf	___lwmod@divisor^0,f,c
  4106   00160A  2E05               	decfsz	___lwmod@counter^0,f,c
  4107   00160C  EFF3  F00A         	goto	l2784
  4108   001610                     l1024:
  4109   001610  C001  F001         	movff	___lwmod@dividend,?___lwmod
  4110   001614  C002  F002         	movff	___lwmod@dividend+1,?___lwmod+1
  4111   001618  0012               	return		;funcret
  4112   00161A                     __end_of___lwmod:
  4113                           	callstack 0
  4114                           
  4115 ;; *************** function ___lwdiv *****************
  4116 ;; Defined at:
  4117 ;;		line 7 in file "C:\Program Files\Microchip\xc8\v2.46\pic\sources\c99\common\lwdiv.c"
  4118 ;; Parameters:    Size  Location     Type
  4119 ;;  dividend        2    0[COMRAM] unsigned int 
  4120 ;;  divisor         2    2[COMRAM] unsigned int 
  4121 ;; Auto vars:     Size  Location     Type
  4122 ;;  quotient        2    4[COMRAM] unsigned int 
  4123 ;;  counter         1    6[COMRAM] unsigned char 
  4124 ;; Return value:  Size  Location     Type
  4125 ;;                  2    0[COMRAM] unsigned int 
  4126 ;; Registers used:
  4127 ;;		wreg, status,2, status,0
  4128 ;; Tracked objects:
  4129 ;;		On entry : 0/0
  4130 ;;		On exit  : 0/0
  4131 ;;		Unchanged: 0/0
  4132 ;; Data sizes:     COMRAM   BANK0   BANK1   BANK2   BANK3   BANK4   BANK5
  4133 ;;      Params:         4       0       0       0       0       0       0
  4134 ;;      Locals:         3       0       0       0       0       0       0
  4135 ;;      Temps:          0       0       0       0       0       0       0
  4136 ;;      Totals:         7       0       0       0       0       0       0
  4137 ;;Total ram usage:        7 bytes
  4138 ;; Hardware stack levels used: 1
  4139 ;; This function calls:
  4140 ;;		Nothing
  4141 ;; This function is called by:
  4142 ;;		_view_dashboard
  4143 ;;		_event_store
  4144 ;;		_set_time
  4145 ;; This function uses a non-reentrant model
  4146 ;;
  4147                           
  4148                           	psect	text14
  4149   001760                     __ptext14:
  4150                           	callstack 0
  4151   001760                     ___lwdiv:
  4152                           	callstack 28
  4153   001760  0E00               	movlw	0
  4154   001762  6E06               	movwf	(___lwdiv@quotient+1)^0,c
  4155   001764  0E00               	movlw	0
  4156   001766  6E05               	movwf	___lwdiv@quotient^0,c
  4157   001768  5003               	movf	___lwdiv@divisor^0,w,c
  4158   00176A  1004               	iorwf	(___lwdiv@divisor+1)^0,w,c
  4159   00176C  B4D8               	btfsc	status,2,c
  4160   00176E  EFBB  F00B         	goto	u1371
  4161   001772  EFBD  F00B         	goto	u1370
  4162   001776                     u1371:
  4163   001776  EFE5  F00B         	goto	l1014
  4164   00177A                     u1370:
  4165   00177A  0E01               	movlw	1
  4166   00177C  6E07               	movwf	___lwdiv@counter^0,c
  4167   00177E  EFC5  F00B         	goto	l2418
  4168   001782                     l2416:
  4169   001782  90D8               	bcf	status,0,c
  4170   001784  3603               	rlcf	___lwdiv@divisor^0,f,c
  4171   001786  3604               	rlcf	(___lwdiv@divisor+1)^0,f,c
  4172   001788  2A07               	incf	___lwdiv@counter^0,f,c
  4173   00178A                     l2418:
  4174   00178A  AE04               	btfss	(___lwdiv@divisor+1)^0,7,c
  4175   00178C  EFCA  F00B         	goto	u1381
  4176   001790  EFCC  F00B         	goto	u1380
  4177   001794                     u1381:
  4178   001794  EFC1  F00B         	goto	l2416
  4179   001798                     u1380:
  4180   001798                     l2420:
  4181   001798  90D8               	bcf	status,0,c
  4182   00179A  3605               	rlcf	___lwdiv@quotient^0,f,c
  4183   00179C  3606               	rlcf	(___lwdiv@quotient+1)^0,f,c
  4184   00179E  5003               	movf	___lwdiv@divisor^0,w,c
  4185   0017A0  5C01               	subwf	___lwdiv@dividend^0,w,c
  4186   0017A2  5004               	movf	(___lwdiv@divisor+1)^0,w,c
  4187   0017A4  5802               	subwfb	(___lwdiv@dividend+1)^0,w,c
  4188   0017A6  A0D8               	btfss	status,0,c
  4189   0017A8  EFD8  F00B         	goto	u1391
  4190   0017AC  EFDA  F00B         	goto	u1390
  4191   0017B0                     u1391:
  4192   0017B0  EFDF  F00B         	goto	l2428
  4193   0017B4                     u1390:
  4194   0017B4  5003               	movf	___lwdiv@divisor^0,w,c
  4195   0017B6  5E01               	subwf	___lwdiv@dividend^0,f,c
  4196   0017B8  5004               	movf	(___lwdiv@divisor+1)^0,w,c
  4197   0017BA  5A02               	subwfb	(___lwdiv@dividend+1)^0,f,c
  4198   0017BC  8005               	bsf	___lwdiv@quotient^0,0,c
  4199   0017BE                     l2428:
  4200   0017BE  90D8               	bcf	status,0,c
  4201   0017C0  3204               	rrcf	(___lwdiv@divisor+1)^0,f,c
  4202   0017C2  3203               	rrcf	___lwdiv@divisor^0,f,c
  4203   0017C4  2E07               	decfsz	___lwdiv@counter^0,f,c
  4204   0017C6  EFCC  F00B         	goto	l2420
  4205   0017CA                     l1014:
  4206   0017CA  C005  F001         	movff	___lwdiv@quotient,?___lwdiv
  4207   0017CE  C006  F002         	movff	___lwdiv@quotient+1,?___lwdiv+1
  4208   0017D2  0012               	return		;funcret
  4209   0017D4                     __end_of___lwdiv:
  4210                           	callstack 0
  4211                           
  4212 ;; *************** function _read_switches *****************
  4213 ;; Defined at:
  4214 ;;		line 91 in file "matrix_keypad.c"
  4215 ;; Parameters:    Size  Location     Type
  4216 ;;  detection_ty    1    wreg     unsigned char 
  4217 ;; Auto vars:     Size  Location     Type
  4218 ;;  detection_ty    1    0[COMRAM] unsigned char 
  4219 ;; Return value:  Size  Location     Type
  4220 ;;                  1    wreg      unsigned char 
  4221 ;; Registers used:
  4222 ;;		wreg, status,2, status,0, cstack
  4223 ;; Tracked objects:
  4224 ;;		On entry : 0/0
  4225 ;;		On exit  : 0/0
  4226 ;;		Unchanged: 0/0
  4227 ;; Data sizes:     COMRAM   BANK0   BANK1   BANK2   BANK3   BANK4   BANK5
  4228 ;;      Params:         0       0       0       0       0       0       0
  4229 ;;      Locals:         1       0       0       0       0       0       0
  4230 ;;      Temps:          0       0       0       0       0       0       0
  4231 ;;      Totals:         1       0       0       0       0       0       0
  4232 ;;Total ram usage:        1 bytes
  4233 ;; Hardware stack levels used: 1
  4234 ;; Hardware stack levels required when called: 1
  4235 ;; This function calls:
  4236 ;;		_scan_key
  4237 ;; This function is called by:
  4238 ;;		_main
  4239 ;; This function uses a non-reentrant model
  4240 ;;
  4241                           
  4242                           	psect	text15
  4243   0017D4                     __ptext15:
  4244                           	callstack 0
  4245   0017D4                     _read_switches:
  4246                           	callstack 29
  4247                           
  4248                           ;incstack = 0
  4249                           ;read_switches@detection_type stored from wreg
  4250   0017D4  6E01               	movwf	read_switches@detection_type^0,c
  4251   0017D6                     
  4252                           ;matrix_keypad.c: 91: unsigned char read_switches(unsigned char detection_type);matrix_k
      +                          eypad.c: 92: {;matrix_keypad.c: 93:  static unsigned char once = 1, key;;matrix_keypad.c
      +                          : 95:  if (detection_type == 1)
  4253   0017D6  0401               	decf	read_switches@detection_type^0,w,c
  4254   0017D8  A4D8               	btfss	status,2,c
  4255   0017DA  EFF1  F00B         	goto	u831
  4256   0017DE  EFF3  F00B         	goto	u830
  4257   0017E2                     u831:
  4258   0017E2  EF17  F00C         	goto	l1890
  4259   0017E6                     u830:
  4260   0017E6                     
  4261                           ;matrix_keypad.c: 96:  {;matrix_keypad.c: 97:   key = scan_key();
  4262   0017E6  EC87  F00D         	call	_scan_key	;wreg free
  4263   0017EA  6E4F               	movwf	read_switches@key^0,c
  4264   0017EC                     
  4265                           ;matrix_keypad.c: 98:   if(key != 0xFF && once )
  4266   0017EC  284F               	incf	read_switches@key^0,w,c
  4267   0017EE  B4D8               	btfsc	status,2,c
  4268   0017F0  EFFC  F00B         	goto	u841
  4269   0017F4  EFFE  F00B         	goto	u840
  4270   0017F8                     u841:
  4271   0017F8  EF0B  F00C         	goto	l1886
  4272   0017FC                     u840:
  4273   0017FC  5059               	movf	read_switches@once^0,w,c
  4274   0017FE  B4D8               	btfsc	status,2,c
  4275   001800  EF04  F00C         	goto	u851
  4276   001804  EF06  F00C         	goto	u850
  4277   001808                     u851:
  4278   001808  EF0B  F00C         	goto	l1886
  4279   00180C                     u850:
  4280   00180C                     
  4281                           ;matrix_keypad.c: 99:   {;matrix_keypad.c: 100:    once = 0;
  4282   00180C  0E00               	movlw	0
  4283   00180E  6E59               	movwf	read_switches@once^0,c
  4284                           
  4285                           ;matrix_keypad.c: 101:    return key;
  4286   001810  504F               	movf	read_switches@key^0,w,c
  4287   001812  EF24  F00C         	goto	l313
  4288   001816                     l1886:
  4289   001816  284F               	incf	read_switches@key^0,w,c
  4290   001818  A4D8               	btfss	status,2,c
  4291   00181A  EF11  F00C         	goto	u861
  4292   00181E  EF13  F00C         	goto	u860
  4293   001822                     u861:
  4294   001822  EF23  F00C         	goto	l1896
  4295   001826                     u860:
  4296   001826                     
  4297                           ;matrix_keypad.c: 104:   {;matrix_keypad.c: 105:    once = 1;
  4298   001826  0E01               	movlw	1
  4299   001828  6E59               	movwf	read_switches@once^0,c
  4300   00182A  EF23  F00C         	goto	l1896
  4301   00182E                     l1890:
  4302   00182E  5001               	movf	read_switches@detection_type^0,w,c
  4303   001830  A4D8               	btfss	status,2,c
  4304   001832  EF1D  F00C         	goto	u871
  4305   001836  EF1F  F00C         	goto	u870
  4306   00183A                     u871:
  4307   00183A  EF23  F00C         	goto	l1896
  4308   00183E                     u870:
  4309   00183E                     
  4310                           ;matrix_keypad.c: 109:  {;matrix_keypad.c: 110:   return scan_key();
  4311   00183E  EC87  F00D         	call	_scan_key	;wreg free
  4312   001842  EF24  F00C         	goto	l313
  4313   001846                     l1896:
  4314                           
  4315                           ;matrix_keypad.c: 113:  return 0xFF;
  4316   001846  0EFF               	movlw	255
  4317   001848                     l313:
  4318   001848  0012               	return		;funcret
  4319   00184A                     __end_of_read_switches:
  4320                           	callstack 0
  4321                           
  4322 ;; *************** function _scan_key *****************
  4323 ;; Defined at:
  4324 ;;		line 18 in file "matrix_keypad.c"
  4325 ;; Parameters:    Size  Location     Type
  4326 ;;		None
  4327 ;; Auto vars:     Size  Location     Type
  4328 ;;		None
  4329 ;; Return value:  Size  Location     Type
  4330 ;;                  1    wreg      unsigned char 
  4331 ;; Registers used:
  4332 ;;		wreg
  4333 ;; Tracked objects:
  4334 ;;		On entry : 0/0
  4335 ;;		On exit  : 0/0
  4336 ;;		Unchanged: 0/0
  4337 ;; Data sizes:     COMRAM   BANK0   BANK1   BANK2   BANK3   BANK4   BANK5
  4338 ;;      Params:         0       0       0       0       0       0       0
  4339 ;;      Locals:         0       0       0       0       0       0       0
  4340 ;;      Temps:          0       0       0       0       0       0       0
  4341 ;;      Totals:         0       0       0       0       0       0       0
  4342 ;;Total ram usage:        0 bytes
  4343 ;; Hardware stack levels used: 1
  4344 ;; This function calls:
  4345 ;;		Nothing
  4346 ;; This function is called by:
  4347 ;;		_read_switches
  4348 ;; This function uses a non-reentrant model
  4349 ;;
  4350                           
  4351                           	psect	text16
  4352   001B0E                     __ptext16:
  4353                           	callstack 0
  4354   001B0E                     _scan_key:
  4355                           	callstack 29
  4356   001B0E                     
  4357                           ;matrix_keypad.c: 21:  PORTBbits.RB5 = 0;
  4358   001B0E  9A81               	bcf	129,5,c	;volatile
  4359                           
  4360                           ;matrix_keypad.c: 22:  PORTBbits.RB6 = 1;
  4361   001B10  8C81               	bsf	129,6,c	;volatile
  4362                           
  4363                           ;matrix_keypad.c: 23:  PORTBbits.RB7 = 1;
  4364   001B12  8E81               	bsf	129,7,c	;volatile
  4365                           
  4366                           ;matrix_keypad.c: 25:  if (PORTBbits.RB1 == 0)
  4367   001B14  B281               	btfsc	129,1,c	;volatile
  4368   001B16  EF8F  F00D         	goto	u281
  4369   001B1A  EF91  F00D         	goto	u280
  4370   001B1E                     u281:
  4371   001B1E  EF94  F00D         	goto	l283
  4372   001B22                     u280:
  4373   001B22                     
  4374                           ;matrix_keypad.c: 26:  {;matrix_keypad.c: 27:   return 1;
  4375   001B22  0E01               	movlw	1
  4376   001B24  EF0A  F00E         	goto	l284
  4377   001B28                     l283:
  4378   001B28  B481               	btfsc	129,2,c	;volatile
  4379   001B2A  EF99  F00D         	goto	u291
  4380   001B2E  EF9B  F00D         	goto	u290
  4381   001B32                     u291:
  4382   001B32  EF9E  F00D         	goto	l286
  4383   001B36                     u290:
  4384   001B36                     
  4385                           ;matrix_keypad.c: 30:  {;matrix_keypad.c: 31:   return 4;
  4386   001B36  0E04               	movlw	4
  4387   001B38  EF0A  F00E         	goto	l284
  4388   001B3C                     l286:
  4389   001B3C  B681               	btfsc	129,3,c	;volatile
  4390   001B3E  EFA3  F00D         	goto	u301
  4391   001B42  EFA5  F00D         	goto	u300
  4392   001B46                     u301:
  4393   001B46  EFA8  F00D         	goto	l288
  4394   001B4A                     u300:
  4395   001B4A                     
  4396                           ;matrix_keypad.c: 34:  {;matrix_keypad.c: 35:   return 7;
  4397   001B4A  0E07               	movlw	7
  4398   001B4C  EF0A  F00E         	goto	l284
  4399   001B50                     l288:
  4400   001B50  B881               	btfsc	129,4,c	;volatile
  4401   001B52  EFAD  F00D         	goto	u311
  4402   001B56  EFAF  F00D         	goto	u310
  4403   001B5A                     u311:
  4404   001B5A  EFB2  F00D         	goto	l285
  4405   001B5E                     u310:
  4406   001B5E                     
  4407                           ;matrix_keypad.c: 38:  {;matrix_keypad.c: 39:   return 10;
  4408   001B5E  0E0A               	movlw	10
  4409   001B60  EF0A  F00E         	goto	l284
  4410   001B64                     l285:
  4411                           
  4412                           ;matrix_keypad.c: 43:  PORTBbits.RB5 = 1;
  4413   001B64  8A81               	bsf	129,5,c	;volatile
  4414                           
  4415                           ;matrix_keypad.c: 44:  PORTBbits.RB6 = 0;
  4416   001B66  9C81               	bcf	129,6,c	;volatile
  4417                           
  4418                           ;matrix_keypad.c: 45:  PORTBbits.RB7 = 1;
  4419   001B68  8E81               	bsf	129,7,c	;volatile
  4420                           
  4421                           ;matrix_keypad.c: 47:  if (PORTBbits.RB1 == 0)
  4422   001B6A  B281               	btfsc	129,1,c	;volatile
  4423   001B6C  EFBA  F00D         	goto	u321
  4424   001B70  EFBC  F00D         	goto	u320
  4425   001B74                     u321:
  4426   001B74  EFBF  F00D         	goto	l291
  4427   001B78                     u320:
  4428   001B78                     
  4429                           ;matrix_keypad.c: 48:  {;matrix_keypad.c: 49:   return 2;
  4430   001B78  0E02               	movlw	2
  4431   001B7A  EF0A  F00E         	goto	l284
  4432   001B7E                     l291:
  4433   001B7E  B481               	btfsc	129,2,c	;volatile
  4434   001B80  EFC4  F00D         	goto	u331
  4435   001B84  EFC6  F00D         	goto	u330
  4436   001B88                     u331:
  4437   001B88  EFC9  F00D         	goto	l293
  4438   001B8C                     u330:
  4439   001B8C                     
  4440                           ;matrix_keypad.c: 52:  {;matrix_keypad.c: 53:   return 5;
  4441   001B8C  0E05               	movlw	5
  4442   001B8E  EF0A  F00E         	goto	l284
  4443   001B92                     l293:
  4444   001B92  B681               	btfsc	129,3,c	;volatile
  4445   001B94  EFCE  F00D         	goto	u341
  4446   001B98  EFD0  F00D         	goto	u340
  4447   001B9C                     u341:
  4448   001B9C  EFD3  F00D         	goto	l295
  4449   001BA0                     u340:
  4450   001BA0                     
  4451                           ;matrix_keypad.c: 56:  {;matrix_keypad.c: 57:   return 8;
  4452   001BA0  0E08               	movlw	8
  4453   001BA2  EF0A  F00E         	goto	l284
  4454   001BA6                     l295:
  4455   001BA6  B881               	btfsc	129,4,c	;volatile
  4456   001BA8  EFD8  F00D         	goto	u351
  4457   001BAC  EFDA  F00D         	goto	u350
  4458   001BB0                     u351:
  4459   001BB0  EFDD  F00D         	goto	l292
  4460   001BB4                     u350:
  4461   001BB4                     
  4462                           ;matrix_keypad.c: 60:  {;matrix_keypad.c: 61:   return 11;
  4463   001BB4  0E0B               	movlw	11
  4464   001BB6  EF0A  F00E         	goto	l284
  4465   001BBA                     l292:
  4466                           
  4467                           ;matrix_keypad.c: 65:  PORTBbits.RB5 = 1;
  4468   001BBA  8A81               	bsf	129,5,c	;volatile
  4469                           
  4470                           ;matrix_keypad.c: 66:  PORTBbits.RB6 = 1;
  4471   001BBC  8C81               	bsf	129,6,c	;volatile
  4472                           
  4473                           ;matrix_keypad.c: 67:  PORTBbits.RB7 = 0;
  4474   001BBE  9E81               	bcf	129,7,c	;volatile
  4475                           
  4476                           ;matrix_keypad.c: 69:  PORTBbits.RB7 = 0;
  4477   001BC0  9E81               	bcf	129,7,c	;volatile
  4478                           
  4479                           ;matrix_keypad.c: 71:  if (PORTBbits.RB1 == 0)
  4480   001BC2  B281               	btfsc	129,1,c	;volatile
  4481   001BC4  EFE6  F00D         	goto	u361
  4482   001BC8  EFE8  F00D         	goto	u360
  4483   001BCC                     u361:
  4484   001BCC  EFEB  F00D         	goto	l298
  4485   001BD0                     u360:
  4486   001BD0                     
  4487                           ;matrix_keypad.c: 72:  {;matrix_keypad.c: 73:   return 3;
  4488   001BD0  0E03               	movlw	3
  4489   001BD2  EF0A  F00E         	goto	l284
  4490   001BD6                     l298:
  4491   001BD6  B481               	btfsc	129,2,c	;volatile
  4492   001BD8  EFF0  F00D         	goto	u371
  4493   001BDC  EFF2  F00D         	goto	u370
  4494   001BE0                     u371:
  4495   001BE0  EFF5  F00D         	goto	l300
  4496   001BE4                     u370:
  4497   001BE4                     
  4498                           ;matrix_keypad.c: 76:  {;matrix_keypad.c: 77:   return 6;
  4499   001BE4  0E06               	movlw	6
  4500   001BE6  EF0A  F00E         	goto	l284
  4501   001BEA                     l300:
  4502   001BEA  B681               	btfsc	129,3,c	;volatile
  4503   001BEC  EFFA  F00D         	goto	u381
  4504   001BF0  EFFC  F00D         	goto	u380
  4505   001BF4                     u381:
  4506   001BF4  EFFF  F00D         	goto	l302
  4507   001BF8                     u380:
  4508   001BF8                     
  4509                           ;matrix_keypad.c: 80:  {;matrix_keypad.c: 81:   return 9;
  4510   001BF8  0E09               	movlw	9
  4511   001BFA  EF0A  F00E         	goto	l284
  4512   001BFE                     l302:
  4513   001BFE  B881               	btfsc	129,4,c	;volatile
  4514   001C00  EF04  F00E         	goto	u391
  4515   001C04  EF06  F00E         	goto	u390
  4516   001C08                     u391:
  4517   001C08  EF09  F00E         	goto	l301
  4518   001C0C                     u390:
  4519   001C0C                     
  4520                           ;matrix_keypad.c: 84:  {;matrix_keypad.c: 85:   return 12;
  4521   001C0C  0E0C               	movlw	12
  4522   001C0E  EF0A  F00E         	goto	l284
  4523   001C12                     l301:
  4524   001C12                     
  4525                           ;matrix_keypad.c: 88:  return 0xFF;
  4526   001C12  0EFF               	movlw	255
  4527   001C14                     l284:
  4528   001C14  0012               	return		;funcret
  4529   001C16                     __end_of_scan_key:
  4530                           	callstack 0
  4531                           
  4532 ;; *************** function _init_config *****************
  4533 ;; Defined at:
  4534 ;;		line 26 in file "main.c"
  4535 ;; Parameters:    Size  Location     Type
  4536 ;;		None
  4537 ;; Auto vars:     Size  Location     Type
  4538 ;;		None
  4539 ;; Return value:  Size  Location     Type
  4540 ;;                  1    wreg      void 
  4541 ;; Registers used:
  4542 ;;		wreg, status,2, status,0, cstack
  4543 ;; Tracked objects:
  4544 ;;		On entry : 0/0
  4545 ;;		On exit  : 0/0
  4546 ;;		Unchanged: 0/0
  4547 ;; Data sizes:     COMRAM   BANK0   BANK1   BANK2   BANK3   BANK4   BANK5
  4548 ;;      Params:         0       0       0       0       0       0       0
  4549 ;;      Locals:         0       0       0       0       0       0       0
  4550 ;;      Temps:          0       0       0       0       0       0       0
  4551 ;;      Totals:         0       0       0       0       0       0       0
  4552 ;;Total ram usage:        0 bytes
  4553 ;; Hardware stack levels used: 1
  4554 ;; Hardware stack levels required when called: 5
  4555 ;; This function calls:
  4556 ;;		_init_adc
  4557 ;;		_init_clcd
  4558 ;;		_init_ds1307
  4559 ;;		_init_i2c
  4560 ;;		_init_matrix_keypad
  4561 ;;		_init_uart
  4562 ;; This function is called by:
  4563 ;;		_main
  4564 ;; This function uses a non-reentrant model
  4565 ;;
  4566                           
  4567                           	psect	text17
  4568   0013B0                     __ptext17:
  4569                           	callstack 0
  4570   0013B0                     _init_config:
  4571                           	callstack 25
  4572   0013B0                     
  4573                           ;main.c: 27:     init_clcd();
  4574   0013B0  ECB0  F00C         	call	_init_clcd	;wreg free
  4575                           
  4576                           ;main.c: 28:     init_matrix_keypad();
  4577   0013B4  EC86  F009         	call	_init_matrix_keypad	;wreg free
  4578   0013B8                     
  4579                           ;main.c: 29:     init_adc();
  4580   0013B8  ECE7  F009         	call	_init_adc	;wreg free
  4581   0013BC                     
  4582                           ;main.c: 30:     init_uart();
  4583   0013BC  ECF7  F009         	call	_init_uart	;wreg free
  4584   0013C0                     
  4585                           ;main.c: 31:     init_i2c();
  4586   0013C0  EC99  F009         	call	_init_i2c	;wreg free
  4587   0013C4                     
  4588                           ;main.c: 32:  init_ds1307();
  4589   0013C4  ECBC  F009         	call	_init_ds1307	;wreg free
  4590   0013C8                     
  4591                           ;main.c: 33:     state = e_dashboard;
  4592   0013C8  0E00               	movlw	0
  4593   0013CA  6E58               	movwf	_state^0,c
  4594   0013CC  0012               	return		;funcret
  4595   0013CE                     __end_of_init_config:
  4596                           	callstack 0
  4597                           
  4598 ;; *************** function _init_uart *****************
  4599 ;; Defined at:
  4600 ;;		line 4 in file "uart.c"
  4601 ;; Parameters:    Size  Location     Type
  4602 ;;		None
  4603 ;; Auto vars:     Size  Location     Type
  4604 ;;		None
  4605 ;; Return value:  Size  Location     Type
  4606 ;;                  1    wreg      void 
  4607 ;; Registers used:
  4608 ;;		wreg, status,2
  4609 ;; Tracked objects:
  4610 ;;		On entry : 0/0
  4611 ;;		On exit  : 0/0
  4612 ;;		Unchanged: 0/0
  4613 ;; Data sizes:     COMRAM   BANK0   BANK1   BANK2   BANK3   BANK4   BANK5
  4614 ;;      Params:         0       0       0       0       0       0       0
  4615 ;;      Locals:         0       0       0       0       0       0       0
  4616 ;;      Temps:          0       0       0       0       0       0       0
  4617 ;;      Totals:         0       0       0       0       0       0       0
  4618 ;;Total ram usage:        0 bytes
  4619 ;; Hardware stack levels used: 1
  4620 ;; This function calls:
  4621 ;;		Nothing
  4622 ;; This function is called by:
  4623 ;;		_init_config
  4624 ;; This function uses a non-reentrant model
  4625 ;;
  4626                           
  4627                           	psect	text18
  4628   0013EE                     __ptext18:
  4629                           	callstack 0
  4630   0013EE                     _init_uart:
  4631                           	callstack 29
  4632   0013EE                     
  4633                           ;uart.c: 7:  TRISC7 = 1;
  4634   0013EE  8E94               	bsf	3988,7,c	;volatile
  4635                           
  4636                           ;uart.c: 8:  TRISC6 = 0;
  4637   0013F0  9C94               	bcf	3988,6,c	;volatile
  4638                           
  4639                           ;uart.c: 12:  TX9 = 0;
  4640   0013F2  9CAC               	bcf	4012,6,c	;volatile
  4641                           
  4642                           ;uart.c: 14:  TXEN = 1;
  4643   0013F4  8AAC               	bsf	4012,5,c	;volatile
  4644                           
  4645                           ;uart.c: 17:  SYNC = 0;
  4646   0013F6  98AC               	bcf	4012,4,c	;volatile
  4647                           
  4648                           ;uart.c: 19:  SENDB = 0;
  4649   0013F8  96AC               	bcf	4012,3,c	;volatile
  4650                           
  4651                           ;uart.c: 22:  BRGH = 1;
  4652   0013FA  84AC               	bsf	4012,2,c	;volatile
  4653                           
  4654                           ;uart.c: 26:  SPEN = 1;
  4655   0013FC  8EAB               	bsf	4011,7,c	;volatile
  4656                           
  4657                           ;uart.c: 28:  RX9 = 0;
  4658   0013FE  9CAB               	bcf	4011,6,c	;volatile
  4659                           
  4660                           ;uart.c: 30:  CREN = 1;
  4661   001400  88AB               	bsf	4011,4,c	;volatile
  4662                           
  4663                           ;uart.c: 34:  BRG16 = 0;
  4664   001402  96B8               	bcf	4024,3,c	;volatile
  4665   001404                     
  4666                           ;uart.c: 38:  SPBRG = 129;
  4667   001404  0E81               	movlw	129
  4668   001406  6EAF               	movwf	175,c	;volatile
  4669   001408                     
  4670                           ;uart.c: 41:  TXIF = 0;
  4671   001408  989E               	bcf	3998,4,c	;volatile
  4672   00140A                     
  4673                           ;uart.c: 43:  RCIF = 0;
  4674   00140A  9A9E               	bcf	3998,5,c	;volatile
  4675   00140C  0012               	return		;funcret
  4676   00140E                     __end_of_init_uart:
  4677                           	callstack 0
  4678                           
  4679 ;; *************** function _init_matrix_keypad *****************
  4680 ;; Defined at:
  4681 ;;		line 4 in file "matrix_keypad.c"
  4682 ;; Parameters:    Size  Location     Type
  4683 ;;		None
  4684 ;; Auto vars:     Size  Location     Type
  4685 ;;		None
  4686 ;; Return value:  Size  Location     Type
  4687 ;;                  1    wreg      void 
  4688 ;; Registers used:
  4689 ;;		wreg, status,2, status,0
  4690 ;; Tracked objects:
  4691 ;;		On entry : 0/0
  4692 ;;		On exit  : 0/0
  4693 ;;		Unchanged: 0/0
  4694 ;; Data sizes:     COMRAM   BANK0   BANK1   BANK2   BANK3   BANK4   BANK5
  4695 ;;      Params:         0       0       0       0       0       0       0
  4696 ;;      Locals:         0       0       0       0       0       0       0
  4697 ;;      Temps:          0       0       0       0       0       0       0
  4698 ;;      Totals:         0       0       0       0       0       0       0
  4699 ;;Total ram usage:        0 bytes
  4700 ;; Hardware stack levels used: 1
  4701 ;; This function calls:
  4702 ;;		Nothing
  4703 ;; This function is called by:
  4704 ;;		_init_config
  4705 ;; This function uses a non-reentrant model
  4706 ;;
  4707                           
  4708                           	psect	text19
  4709   00130C                     __ptext19:
  4710                           	callstack 0
  4711   00130C                     _init_matrix_keypad:
  4712                           	callstack 29
  4713   00130C                     
  4714                           ;matrix_keypad.c: 7:  ADCON1 = 0x0F;
  4715   00130C  0E0F               	movlw	15
  4716   00130E  6EC1               	movwf	193,c	;volatile
  4717                           
  4718                           ;matrix_keypad.c: 10:  TRISB = 0x1E;
  4719   001310  0E1E               	movlw	30
  4720   001312  6E93               	movwf	147,c	;volatile
  4721   001314                     
  4722                           ;matrix_keypad.c: 13:  RBPU = 0;
  4723   001314  9EF1               	bcf	4081,7,c	;volatile
  4724   001316                     
  4725                           ;matrix_keypad.c: 15:  PORTB = PORTB | 0xE0;
  4726   001316  5081               	movf	129,w,c	;volatile
  4727   001318  09E0               	iorlw	224
  4728   00131A  6E81               	movwf	129,c	;volatile
  4729   00131C  0012               	return		;funcret
  4730   00131E                     __end_of_init_matrix_keypad:
  4731                           	callstack 0
  4732                           
  4733 ;; *************** function _init_i2c *****************
  4734 ;; Defined at:
  4735 ;;		line 4 in file "i2c.c"
  4736 ;; Parameters:    Size  Location     Type
  4737 ;;		None
  4738 ;; Auto vars:     Size  Location     Type
  4739 ;;		None
  4740 ;; Return value:  Size  Location     Type
  4741 ;;                  1    wreg      void 
  4742 ;; Registers used:
  4743 ;;		wreg, status,2
  4744 ;; Tracked objects:
  4745 ;;		On entry : 0/0
  4746 ;;		On exit  : 0/0
  4747 ;;		Unchanged: 0/0
  4748 ;; Data sizes:     COMRAM   BANK0   BANK1   BANK2   BANK3   BANK4   BANK5
  4749 ;;      Params:         0       0       0       0       0       0       0
  4750 ;;      Locals:         0       0       0       0       0       0       0
  4751 ;;      Temps:          0       0       0       0       0       0       0
  4752 ;;      Totals:         0       0       0       0       0       0       0
  4753 ;;Total ram usage:        0 bytes
  4754 ;; Hardware stack levels used: 1
  4755 ;; This function calls:
  4756 ;;		Nothing
  4757 ;; This function is called by:
  4758 ;;		_init_config
  4759 ;; This function uses a non-reentrant model
  4760 ;;
  4761                           
  4762                           	psect	text20
  4763   001332                     __ptext20:
  4764                           	callstack 0
  4765   001332                     _init_i2c:
  4766                           	callstack 29
  4767   001332                     
  4768                           ;i2c.c: 7:  TRISC3 = 1;
  4769   001332  8694               	bsf	3988,3,c	;volatile
  4770                           
  4771                           ;i2c.c: 8:  TRISC4 = 1;
  4772   001334  8894               	bsf	3988,4,c	;volatile
  4773   001336                     
  4774                           ;i2c.c: 10:  SSPCON1 = 0x28;
  4775   001336  0E28               	movlw	40
  4776   001338  6EC6               	movwf	198,c	;volatile
  4777                           
  4778                           ;i2c.c: 12:  SSPADD = 0x31;
  4779   00133A  0E31               	movlw	49
  4780   00133C  6EC8               	movwf	200,c	;volatile
  4781   00133E                     
  4782                           ;i2c.c: 14:  CKE = 0;
  4783   00133E  9CC7               	bcf	4039,6,c	;volatile
  4784   001340                     
  4785                           ;i2c.c: 16:  SMP = 1;
  4786   001340  8EC7               	bsf	4039,7,c	;volatile
  4787   001342                     
  4788                           ;i2c.c: 18:  SSPIF = 0;
  4789   001342  969E               	bcf	3998,3,c	;volatile
  4790   001344                     
  4791                           ;i2c.c: 20:  BCLIF = 0;
  4792   001344  96A1               	bcf	4001,3,c	;volatile
  4793   001346  0012               	return		;funcret
  4794   001348                     __end_of_init_i2c:
  4795                           	callstack 0
  4796                           
  4797 ;; *************** function _init_ds1307 *****************
  4798 ;; Defined at:
  4799 ;;		line 13 in file "ds1307.c"
  4800 ;; Parameters:    Size  Location     Type
  4801 ;;		None
  4802 ;; Auto vars:     Size  Location     Type
  4803 ;;  dummy           1    3[COMRAM] unsigned char 
  4804 ;; Return value:  Size  Location     Type
  4805 ;;                  1    wreg      void 
  4806 ;; Registers used:
  4807 ;;		wreg, status,2, status,0, cstack
  4808 ;; Tracked objects:
  4809 ;;		On entry : 0/0
  4810 ;;		On exit  : 0/0
  4811 ;;		Unchanged: 0/0
  4812 ;; Data sizes:     COMRAM   BANK0   BANK1   BANK2   BANK3   BANK4   BANK5
  4813 ;;      Params:         0       0       0       0       0       0       0
  4814 ;;      Locals:         1       0       0       0       0       0       0
  4815 ;;      Temps:          0       0       0       0       0       0       0
  4816 ;;      Totals:         1       0       0       0       0       0       0
  4817 ;;Total ram usage:        1 bytes
  4818 ;; Hardware stack levels used: 1
  4819 ;; Hardware stack levels required when called: 4
  4820 ;; This function calls:
  4821 ;;		_read_ds1307
  4822 ;;		_write_ds1307
  4823 ;; This function is called by:
  4824 ;;		_init_config
  4825 ;; This function uses a non-reentrant model
  4826 ;;
  4827                           
  4828                           	psect	text21
  4829   001378                     __ptext21:
  4830                           	callstack 0
  4831   001378                     _init_ds1307:
  4832                           	callstack 25
  4833   001378                     
  4834                           ;ds1307.c: 15:     unsigned char dummy;;ds1307.c: 16:     dummy = read_ds1307(0x00);
  4835   001378  0E00               	movlw	0
  4836   00137A  EC1C  F00A         	call	_read_ds1307
  4837   00137E  6E04               	movwf	init_ds1307@dummy^0,c
  4838   001380                     
  4839                           ;ds1307.c: 17:     dummy = dummy & 0x7F;
  4840   001380  5004               	movf	init_ds1307@dummy^0,w,c
  4841   001382  0B7F               	andlw	127
  4842   001384  6E04               	movwf	init_ds1307@dummy^0,c
  4843   001386                     
  4844                           ;ds1307.c: 18:     write_ds1307(0x00, dummy);
  4845   001386  C004  F002         	movff	init_ds1307@dummy,write_ds1307@data
  4846   00138A  0E00               	movlw	0
  4847   00138C  ECC9  F009         	call	_write_ds1307
  4848   001390  0012               	return		;funcret
  4849   001392                     __end_of_init_ds1307:
  4850                           	callstack 0
  4851                           
  4852 ;; *************** function _write_ds1307 *****************
  4853 ;; Defined at:
  4854 ;;		line 21 in file "ds1307.c"
  4855 ;; Parameters:    Size  Location     Type
  4856 ;;  address         1    wreg     unsigned char 
  4857 ;;  data            1    1[COMRAM] unsigned char 
  4858 ;; Auto vars:     Size  Location     Type
  4859 ;;  address         1    2[COMRAM] unsigned char 
  4860 ;; Return value:  Size  Location     Type
  4861 ;;                  1    wreg      void 
  4862 ;; Registers used:
  4863 ;;		wreg, status,2, cstack
  4864 ;; Tracked objects:
  4865 ;;		On entry : 0/0
  4866 ;;		On exit  : 0/0
  4867 ;;		Unchanged: 0/0
  4868 ;; Data sizes:     COMRAM   BANK0   BANK1   BANK2   BANK3   BANK4   BANK5
  4869 ;;      Params:         1       0       0       0       0       0       0
  4870 ;;      Locals:         1       0       0       0       0       0       0
  4871 ;;      Temps:          0       0       0       0       0       0       0
  4872 ;;      Totals:         2       0       0       0       0       0       0
  4873 ;;Total ram usage:        2 bytes
  4874 ;; Hardware stack levels used: 1
  4875 ;; Hardware stack levels required when called: 2
  4876 ;; This function calls:
  4877 ;;		_i2c_start
  4878 ;;		_i2c_stop
  4879 ;;		_i2c_write
  4880 ;; This function is called by:
  4881 ;;		_set_time
  4882 ;;		_init_ds1307
  4883 ;; This function uses a non-reentrant model
  4884 ;;
  4885                           
  4886                           	psect	text22
  4887   001392                     __ptext22:
  4888                           	callstack 0
  4889   001392                     _write_ds1307:
  4890                           	callstack 27
  4891                           
  4892                           ;incstack = 0
  4893                           ;write_ds1307@address stored from wreg
  4894   001392  6E03               	movwf	write_ds1307@address^0,c
  4895   001394                     
  4896                           ;ds1307.c: 21: void write_ds1307(unsigned char address, unsigned char data);ds1307.c: 22
      +                          : {;ds1307.c: 23:  i2c_start();
  4897   001394  EC69  F009         	call	_i2c_start	;wreg free
  4898   001398                     
  4899                           ;ds1307.c: 24:  i2c_write(0xD0);
  4900   001398  0ED0               	movlw	208
  4901   00139A  EC77  F009         	call	_i2c_write
  4902   00139E                     
  4903                           ;ds1307.c: 25:  i2c_write(address);
  4904   00139E  5003               	movf	write_ds1307@address^0,w,c
  4905   0013A0  EC77  F009         	call	_i2c_write
  4906   0013A4                     
  4907                           ;ds1307.c: 26:  i2c_write(data);
  4908   0013A4  5002               	movf	write_ds1307@data^0,w,c
  4909   0013A6  EC77  F009         	call	_i2c_write
  4910   0013AA                     
  4911                           ;ds1307.c: 27:  i2c_stop();
  4912   0013AA  EC6D  F009         	call	_i2c_stop	;wreg free
  4913   0013AE  0012               	return		;funcret
  4914   0013B0                     __end_of_write_ds1307:
  4915                           	callstack 0
  4916                           
  4917 ;; *************** function _read_ds1307 *****************
  4918 ;; Defined at:
  4919 ;;		line 30 in file "ds1307.c"
  4920 ;; Parameters:    Size  Location     Type
  4921 ;;  address         1    wreg     unsigned char 
  4922 ;; Auto vars:     Size  Location     Type
  4923 ;;  address         1    1[COMRAM] unsigned char 
  4924 ;;  data            1    2[COMRAM] unsigned char 
  4925 ;; Return value:  Size  Location     Type
  4926 ;;                  1    wreg      unsigned char 
  4927 ;; Registers used:
  4928 ;;		wreg, status,2, cstack
  4929 ;; Tracked objects:
  4930 ;;		On entry : 0/0
  4931 ;;		On exit  : 0/0
  4932 ;;		Unchanged: 0/0
  4933 ;; Data sizes:     COMRAM   BANK0   BANK1   BANK2   BANK3   BANK4   BANK5
  4934 ;;      Params:         0       0       0       0       0       0       0
  4935 ;;      Locals:         2       0       0       0       0       0       0
  4936 ;;      Temps:          0       0       0       0       0       0       0
  4937 ;;      Totals:         2       0       0       0       0       0       0
  4938 ;;Total ram usage:        2 bytes
  4939 ;; Hardware stack levels used: 1
  4940 ;; Hardware stack levels required when called: 3
  4941 ;; This function calls:
  4942 ;;		_i2c_read
  4943 ;;		_i2c_rep_start
  4944 ;;		_i2c_start
  4945 ;;		_i2c_stop
  4946 ;;		_i2c_write
  4947 ;; This function is called by:
  4948 ;;		_get_time
  4949 ;;		_init_ds1307
  4950 ;; This function uses a non-reentrant model
  4951 ;;
  4952                           
  4953                           	psect	text23
  4954   001438                     __ptext23:
  4955                           	callstack 0
  4956   001438                     _read_ds1307:
  4957                           	callstack 24
  4958                           
  4959                           ;incstack = 0
  4960                           ;read_ds1307@address stored from wreg
  4961   001438  6E02               	movwf	read_ds1307@address^0,c
  4962   00143A                     
  4963                           ;ds1307.c: 30: unsigned char read_ds1307(unsigned char address);ds1307.c: 31: {;ds1307.c
      +                          : 32:  unsigned char data;;ds1307.c: 34:  i2c_start();
  4964   00143A  EC69  F009         	call	_i2c_start	;wreg free
  4965   00143E                     
  4966                           ;ds1307.c: 35:  i2c_write(0xD0);
  4967   00143E  0ED0               	movlw	208
  4968   001440  EC77  F009         	call	_i2c_write
  4969   001444                     
  4970                           ;ds1307.c: 36:  i2c_write(address);
  4971   001444  5002               	movf	read_ds1307@address^0,w,c
  4972   001446  EC77  F009         	call	_i2c_write
  4973   00144A                     
  4974                           ;ds1307.c: 37:  i2c_rep_start();
  4975   00144A  EC65  F009         	call	_i2c_rep_start	;wreg free
  4976   00144E                     
  4977                           ;ds1307.c: 38:  i2c_write(0xD1);
  4978   00144E  0ED1               	movlw	209
  4979   001450  EC77  F009         	call	_i2c_write
  4980                           
  4981                           ;ds1307.c: 39:  data = i2c_read();
  4982   001454  EC71  F009         	call	_i2c_read	;wreg free
  4983   001458  6E03               	movwf	read_ds1307@data^0,c
  4984   00145A                     
  4985                           ;ds1307.c: 40:  i2c_stop();
  4986   00145A  EC6D  F009         	call	_i2c_stop	;wreg free
  4987                           
  4988                           ;ds1307.c: 42:  return data;
  4989   00145E  5003               	movf	read_ds1307@data^0,w,c
  4990   001460  0012               	return		;funcret
  4991   001462                     __end_of_read_ds1307:
  4992                           	callstack 0
  4993                           
  4994 ;; *************** function _init_clcd *****************
  4995 ;; Defined at:
  4996 ;;		line 27 in file "clcd.c"
  4997 ;; Parameters:    Size  Location     Type
  4998 ;;		None
  4999 ;; Auto vars:     Size  Location     Type
  5000 ;;		None
  5001 ;; Return value:  Size  Location     Type
  5002 ;;                  1    wreg      void 
  5003 ;; Registers used:
  5004 ;;		wreg, status,2, status,0, cstack
  5005 ;; Tracked objects:
  5006 ;;		On entry : 0/0
  5007 ;;		On exit  : 0/0
  5008 ;;		Unchanged: 0/0
  5009 ;; Data sizes:     COMRAM   BANK0   BANK1   BANK2   BANK3   BANK4   BANK5
  5010 ;;      Params:         0       0       0       0       0       0       0
  5011 ;;      Locals:         0       0       0       0       0       0       0
  5012 ;;      Temps:          1       0       0       0       0       0       0
  5013 ;;      Totals:         1       0       0       0       0       0       0
  5014 ;;Total ram usage:        1 bytes
  5015 ;; Hardware stack levels used: 1
  5016 ;; Hardware stack levels required when called: 1
  5017 ;; This function calls:
  5018 ;;		_clcd_write
  5019 ;; This function is called by:
  5020 ;;		_init_config
  5021 ;; This function uses a non-reentrant model
  5022 ;;
  5023                           
  5024                           	psect	text24
  5025   001960                     __ptext24:
  5026                           	callstack 0
  5027   001960                     _init_clcd:
  5028                           	callstack 28
  5029   001960                     
  5030                           ;clcd.c: 30:  TRISD = 0x00;
  5031   001960  0E00               	movlw	0
  5032   001962  6E95               	movwf	149,c	;volatile
  5033   001964                     
  5034                           ;clcd.c: 32:  TRISC = TRISC & 0xF8;
  5035   001964  5094               	movf	148,w,c	;volatile
  5036   001966  0BF8               	andlw	248
  5037   001968  6E94               	movwf	148,c	;volatile
  5038   00196A                     
  5039                           ;clcd.c: 33:  RC0 = 0;
  5040   00196A  9082               	bcf	3970,0,c	;volatile
  5041   00196C                     
  5042                           ;clcd.c: 35:     _delay((unsigned long)((30)*(20000000/4000.0)));
  5043   00196C  0EC3               	movlw	195
  5044   00196E  6E03               	movwf	??_init_clcd^0,c
  5045   001970  0ECD               	movlw	205
  5046   001972                     u2367:
  5047   001972  2EE8               	decfsz	wreg,f,c
  5048   001974  D7FE               	bra	u2367
  5049   001976  2E03               	decfsz	??_init_clcd^0,f,c
  5050   001978  D7FC               	bra	u2367
  5051   00197A  0000               	nop	
  5052   00197C                     
  5053                           ;clcd.c: 37:     clcd_write(0x33, 0 );
  5054   00197C  0E00               	movlw	0
  5055   00197E  6E01               	movwf	clcd_write@control_bit^0,c
  5056   001980  0E33               	movlw	51
  5057   001982  EC4C  F00A         	call	_clcd_write
  5058   001986                     
  5059                           ;clcd.c: 38:     _delay((unsigned long)((4100)*(20000000/4000000.0)));
  5060   001986  0E1B               	movlw	27
  5061   001988  6E03               	movwf	??_init_clcd^0,c
  5062   00198A  0E9E               	movlw	158
  5063   00198C                     u2377:
  5064   00198C  2EE8               	decfsz	wreg,f,c
  5065   00198E  D7FE               	bra	u2377
  5066   001990  2E03               	decfsz	??_init_clcd^0,f,c
  5067   001992  D7FC               	bra	u2377
  5068   001994  D000               	nop2	
  5069   001996                     
  5070                           ;clcd.c: 39:     clcd_write(0x33, 0 );
  5071   001996  0E00               	movlw	0
  5072   001998  6E01               	movwf	clcd_write@control_bit^0,c
  5073   00199A  0E33               	movlw	51
  5074   00199C  EC4C  F00A         	call	_clcd_write
  5075   0019A0                     
  5076                           ;clcd.c: 40:     _delay((unsigned long)((100)*(20000000/4000000.0)));
  5077   0019A0  0EA6               	movlw	166
  5078   0019A2                     u2387:
  5079   0019A2  2EE8               	decfsz	wreg,f,c
  5080   0019A4  D7FE               	bra	u2387
  5081   0019A6  D000               	nop2	
  5082   0019A8                     
  5083                           ;clcd.c: 41:     clcd_write(0x33, 0 );
  5084   0019A8  0E00               	movlw	0
  5085   0019AA  6E01               	movwf	clcd_write@control_bit^0,c
  5086   0019AC  0E33               	movlw	51
  5087   0019AE  EC4C  F00A         	call	_clcd_write
  5088   0019B2                     
  5089                           ;clcd.c: 42:     _delay((unsigned long)((1)*(20000000/4000000.0)));
  5090   0019B2  D000               	nop2		;2 cycle nop
  5091   0019B4  D000               	nop2		;2 cycle nop
  5092   0019B6  0000               	nop	
  5093   0019B8                     
  5094                           ;clcd.c: 43:     clcd_write(0x02, 0);
  5095   0019B8  0E00               	movlw	0
  5096   0019BA  6E01               	movwf	clcd_write@control_bit^0,c
  5097   0019BC  0E02               	movlw	2
  5098   0019BE  EC4C  F00A         	call	_clcd_write
  5099   0019C2                     
  5100                           ;clcd.c: 44:     _delay((unsigned long)((100)*(20000000/4000000.0)));
  5101   0019C2  0EA6               	movlw	166
  5102   0019C4                     u2397:
  5103   0019C4  2EE8               	decfsz	wreg,f,c
  5104   0019C6  D7FE               	bra	u2397
  5105   0019C8  D000               	nop2	
  5106   0019CA                     
  5107                           ;clcd.c: 45:     clcd_write(0x38, 0);
  5108   0019CA  0E00               	movlw	0
  5109   0019CC  6E01               	movwf	clcd_write@control_bit^0,c
  5110   0019CE  0E38               	movlw	56
  5111   0019D0  EC4C  F00A         	call	_clcd_write
  5112   0019D4                     
  5113                           ;clcd.c: 46:     _delay((unsigned long)((100)*(20000000/4000000.0)));
  5114   0019D4  0EA6               	movlw	166
  5115   0019D6                     u2407:
  5116   0019D6  2EE8               	decfsz	wreg,f,c
  5117   0019D8  D7FE               	bra	u2407
  5118   0019DA  D000               	nop2	
  5119   0019DC                     
  5120                           ;clcd.c: 47:     clcd_write(0x01, 0);
  5121   0019DC  0E00               	movlw	0
  5122   0019DE  6E01               	movwf	clcd_write@control_bit^0,c
  5123   0019E0  0E01               	movlw	1
  5124   0019E2  EC4C  F00A         	call	_clcd_write
  5125   0019E6                     
  5126                           ;clcd.c: 48:     _delay((unsigned long)((500)*(20000000/4000000.0)));
  5127   0019E6  0E04               	movlw	4
  5128   0019E8  6E03               	movwf	??_init_clcd^0,c
  5129   0019EA  0E3E               	movlw	62
  5130   0019EC                     u2417:
  5131   0019EC  2EE8               	decfsz	wreg,f,c
  5132   0019EE  D7FE               	bra	u2417
  5133   0019F0  2E03               	decfsz	??_init_clcd^0,f,c
  5134   0019F2  D7FC               	bra	u2417
  5135   0019F4                     
  5136                           ;clcd.c: 49:     clcd_write(0x0C, 0);
  5137   0019F4  0E00               	movlw	0
  5138   0019F6  6E01               	movwf	clcd_write@control_bit^0,c
  5139   0019F8  0E0C               	movlw	12
  5140   0019FA  EC4C  F00A         	call	_clcd_write
  5141   0019FE                     
  5142                           ;clcd.c: 50:     _delay((unsigned long)((100)*(20000000/4000000.0)));
  5143   0019FE  0EA6               	movlw	166
  5144   001A00                     u2427:
  5145   001A00  2EE8               	decfsz	wreg,f,c
  5146   001A02  D7FE               	bra	u2427
  5147   001A04  D000               	nop2	
  5148   001A06  0012               	return		;funcret
  5149   001A08                     __end_of_init_clcd:
  5150                           	callstack 0
  5151                           
  5152 ;; *************** function _init_adc *****************
  5153 ;; Defined at:
  5154 ;;		line 4 in file "adc.c"
  5155 ;; Parameters:    Size  Location     Type
  5156 ;;		None
  5157 ;; Auto vars:     Size  Location     Type
  5158 ;;		None
  5159 ;; Return value:  Size  Location     Type
  5160 ;;                  1    wreg      void 
  5161 ;; Registers used:
  5162 ;;		wreg, status,2
  5163 ;; Tracked objects:
  5164 ;;		On entry : 0/0
  5165 ;;		On exit  : 0/0
  5166 ;;		Unchanged: 0/0
  5167 ;; Data sizes:     COMRAM   BANK0   BANK1   BANK2   BANK3   BANK4   BANK5
  5168 ;;      Params:         0       0       0       0       0       0       0
  5169 ;;      Locals:         0       0       0       0       0       0       0
  5170 ;;      Temps:          0       0       0       0       0       0       0
  5171 ;;      Totals:         0       0       0       0       0       0       0
  5172 ;;Total ram usage:        0 bytes
  5173 ;; Hardware stack levels used: 1
  5174 ;; This function calls:
  5175 ;;		Nothing
  5176 ;; This function is called by:
  5177 ;;		_init_config
  5178 ;; This function uses a non-reentrant model
  5179 ;;
  5180                           
  5181                           	psect	text25
  5182   0013CE                     __ptext25:
  5183                           	callstack 0
  5184   0013CE                     _init_adc:
  5185                           	callstack 29
  5186   0013CE                     
  5187                           ;adc.c: 7:  ADFM = 1;
  5188   0013CE  8EC0               	bsf	4032,7,c	;volatile
  5189                           
  5190                           ;adc.c: 13:  ACQT2 = 1;
  5191   0013D0  8AC0               	bsf	4032,5,c	;volatile
  5192                           
  5193                           ;adc.c: 14:  ACQT1 = 0;
  5194   0013D2  98C0               	bcf	4032,4,c	;volatile
  5195                           
  5196                           ;adc.c: 15:  ACQT0 = 0;
  5197   0013D4  96C0               	bcf	4032,3,c	;volatile
  5198                           
  5199                           ;adc.c: 21:  ADCS0 = 0;
  5200   0013D6  90C0               	bcf	4032,0,c	;volatile
  5201                           
  5202                           ;adc.c: 22:  ADCS1 = 1;
  5203   0013D8  82C0               	bsf	4032,1,c	;volatile
  5204                           
  5205                           ;adc.c: 23:  ADCS2 = 0;
  5206   0013DA  94C0               	bcf	4032,2,c	;volatile
  5207                           
  5208                           ;adc.c: 26:  GODONE = 0;
  5209   0013DC  92C2               	bcf	4034,1,c	;volatile
  5210                           
  5211                           ;adc.c: 30:  VCFG1 = 0;
  5212   0013DE  9AC1               	bcf	4033,5,c	;volatile
  5213                           
  5214                           ;adc.c: 32:  VCFG0 = 0;
  5215   0013E0  98C1               	bcf	4033,4,c	;volatile
  5216   0013E2                     
  5217                           ;adc.c: 35:  ADRESH = 0;
  5218   0013E2  0E00               	movlw	0
  5219   0013E4  6EC4               	movwf	196,c	;volatile
  5220                           
  5221                           ;adc.c: 36:  ADRESL = 0;
  5222   0013E6  0E00               	movlw	0
  5223   0013E8  6EC3               	movwf	195,c	;volatile
  5224   0013EA                     
  5225                           ;adc.c: 39:  ADON = 1;
  5226   0013EA  80C2               	bsf	4034,0,c	;volatile
  5227   0013EC  0012               	return		;funcret
  5228   0013EE                     __end_of_init_adc:
  5229                           	callstack 0
  5230                           
  5231 ;; *************** function _download_log *****************
  5232 ;; Defined at:
  5233 ;;		line 247 in file "main.c"
  5234 ;; Parameters:    Size  Location     Type
  5235 ;;		None
  5236 ;; Auto vars:     Size  Location     Type
  5237 ;;  i               2   30[COMRAM] int 
  5238 ;;  delay1          4   23[COMRAM] unsigned long 
  5239 ;;  delay1          4   19[COMRAM] unsigned long 
  5240 ;;  log            11    8[COMRAM] unsigned char [11]
  5241 ;;  index           2   28[COMRAM] int 
  5242 ;;  add             1   27[COMRAM] unsigned char 
  5243 ;; Return value:  Size  Location     Type
  5244 ;;                  1    wreg      void 
  5245 ;; Registers used:
  5246 ;;		wreg, fsr0l, fsr0h, fsr2l, fsr2h, status,2, status,0, tblptrl, tblptrh, tblptru, cstack
  5247 ;; Tracked objects:
  5248 ;;		On entry : 0/0
  5249 ;;		On exit  : 0/0
  5250 ;;		Unchanged: 0/0
  5251 ;; Data sizes:     COMRAM   BANK0   BANK1   BANK2   BANK3   BANK4   BANK5
  5252 ;;      Params:         0       0       0       0       0       0       0
  5253 ;;      Locals:        24       0       0       0       0       0       0
  5254 ;;      Temps:          3       0       0       0       0       0       0
  5255 ;;      Totals:        27       0       0       0       0       0       0
  5256 ;;Total ram usage:       27 bytes
  5257 ;; Hardware stack levels used: 1
  5258 ;; Hardware stack levels required when called: 4
  5259 ;; This function calls:
  5260 ;;		_clcd_print
  5261 ;;		_clcd_write
  5262 ;;		_putch
  5263 ;;		_puts
  5264 ;;		_read_external_EEPROM
  5265 ;; This function is called by:
  5266 ;;		_main
  5267 ;; This function uses a non-reentrant model
  5268 ;;
  5269                           
  5270                           	psect	text26
  5271   002532                     __ptext26:
  5272                           	callstack 0
  5273   002532                     _download_log:
  5274                           	callstack 26
  5275   002532                     
  5276                           ;main.c: 249:     int index = 0;
  5277   002532  0E00               	movlw	0
  5278   002534  6E1E               	movwf	(download_log@index+1)^0,c
  5279   002536  0E00               	movlw	0
  5280   002538  6E1D               	movwf	download_log@index^0,c
  5281                           
  5282                           ;main.c: 250:     char log[11];;main.c: 251:     unsigned char add=0;
  5283   00253A  0E00               	movlw	0
  5284   00253C  6E1C               	movwf	download_log@add^0,c
  5285                           
  5286                           ;main.c: 252:     if (no_of_events == 0)
  5287   00253E  5052               	movf	_no_of_events^0,w,c
  5288   002540  A4D8               	btfss	status,2,c
  5289   002542  EFA5  F012         	goto	u2211
  5290   002546  EFA7  F012         	goto	u2210
  5291   00254A                     u2211:
  5292   00254A  EFE0  F012         	goto	l3014
  5293   00254E                     u2210:
  5294   00254E                     
  5295                           ;main.c: 253:     {;main.c: 254:         clcd_print("NO LOGS         ",(0x80 + (0)));
  5296   00254E  0E28               	movlw	low STR_2
  5297   002550  6E03               	movwf	clcd_print@data^0,c
  5298   002552  0E2F               	movlw	high STR_2
  5299   002554  6E04               	movwf	(clcd_print@data+1)^0,c
  5300   002556  0E80               	movlw	128
  5301   002558  6E05               	movwf	clcd_print@addr^0,c
  5302   00255A  EC0D  F00B         	call	_clcd_print	;wreg free
  5303                           
  5304                           ;main.c: 255:         clcd_print("TO DOWNLOAD :-( ",(0xC0 + (0)));
  5305   00255E  0E8E               	movlw	low STR_10
  5306   002560  6E03               	movwf	clcd_print@data^0,c
  5307   002562  0E2F               	movlw	high STR_10
  5308   002564  6E04               	movwf	(clcd_print@data+1)^0,c
  5309   002566  0EC0               	movlw	192
  5310   002568  6E05               	movwf	clcd_print@addr^0,c
  5311   00256A  EC0D  F00B         	call	_clcd_print	;wreg free
  5312   00256E                     
  5313                           ;main.c: 256:         puts("No logs available");
  5314   00256E  0E05               	movlw	low STR_11
  5315   002570  6E02               	movwf	puts@s^0,c
  5316   002572  0E2F               	movlw	high STR_11
  5317   002574  6E03               	movwf	(puts@s+1)^0,c
  5318   002576  EC31  F00A         	call	_puts	;wreg free
  5319   00257A                     
  5320                           ;main.c: 257:         putch('\n');
  5321   00257A  0E0A               	movlw	10
  5322   00257C  ECB0  F009         	call	_putch
  5323   002580                     
  5324                           ;main.c: 258:         putch('\r');
  5325   002580  0E0D               	movlw	13
  5326   002582  ECB0  F009         	call	_putch
  5327   002586                     
  5328                           ;main.c: 259:         for(unsigned long int delay1 = 1000000;delay1--;);
  5329   002586  0E40               	movlw	64
  5330   002588  6E14               	movwf	download_log@delay1^0,c
  5331   00258A  0E42               	movlw	66
  5332   00258C  6E15               	movwf	(download_log@delay1+1)^0,c
  5333   00258E  0E0F               	movlw	15
  5334   002590  6E16               	movwf	(download_log@delay1+2)^0,c
  5335   002592  0E00               	movlw	0
  5336   002594  6E17               	movwf	(download_log@delay1+3)^0,c
  5337   002596                     l3012:
  5338   002596  0614               	decf	download_log@delay1^0,f,c
  5339   002598  0E00               	movlw	0
  5340   00259A  5A15               	subwfb	(download_log@delay1+1)^0,f,c
  5341   00259C  5A16               	subwfb	(download_log@delay1+2)^0,f,c
  5342   00259E  5A17               	subwfb	(download_log@delay1+3)^0,f,c
  5343   0025A0  2814               	incf	download_log@delay1^0,w,c
  5344   0025A2  E10A               	bnz	u2221
  5345   0025A4  2815               	incf	(download_log@delay1+1)^0,w,c
  5346   0025A6  E108               	bnz	u2221
  5347   0025A8  2816               	incf	(download_log@delay1+2)^0,w,c
  5348   0025AA  E106               	bnz	u2221
  5349   0025AC  2817               	incf	(download_log@delay1+3)^0,w,c
  5350   0025AE  A4D8               	btfss	status,2,c
  5351   0025B0  EFDC  F012         	goto	u2221
  5352   0025B4  EFDE  F012         	goto	u2220
  5353   0025B8                     u2221:
  5354   0025B8  EFCB  F012         	goto	l3012
  5355   0025BC                     u2220:
  5356   0025BC  EF96  F013         	goto	l3084
  5357   0025C0                     l3014:
  5358                           
  5359                           ;main.c: 262:     {;main.c: 263:         puts("Logs :");
  5360   0025C0  0EF4               	movlw	low STR_12
  5361   0025C2  6E02               	movwf	puts@s^0,c
  5362   0025C4  0E2F               	movlw	high STR_12
  5363   0025C6  6E03               	movwf	(puts@s+1)^0,c
  5364   0025C8  EC31  F00A         	call	_puts	;wreg free
  5365   0025CC                     
  5366                           ;main.c: 264:         putch('\n');
  5367   0025CC  0E0A               	movlw	10
  5368   0025CE  ECB0  F009         	call	_putch
  5369   0025D2                     
  5370                           ;main.c: 265:         putch('\r');
  5371   0025D2  0E0D               	movlw	13
  5372   0025D4  ECB0  F009         	call	_putch
  5373                           
  5374                           ;main.c: 266:         puts("#     Time        Event       Speed");
  5375   0025D8  0EE1               	movlw	low STR_13
  5376   0025DA  6E02               	movwf	puts@s^0,c
  5377   0025DC  0E2E               	movlw	high STR_13
  5378   0025DE  6E03               	movwf	(puts@s+1)^0,c
  5379   0025E0  EC31  F00A         	call	_puts	;wreg free
  5380   0025E4                     
  5381                           ;main.c: 267:         putch('\n');
  5382   0025E4  0E0A               	movlw	10
  5383   0025E6  ECB0  F009         	call	_putch
  5384   0025EA                     
  5385                           ;main.c: 268:         putch('\r');
  5386   0025EA  0E0D               	movlw	13
  5387   0025EC  ECB0  F009         	call	_putch
  5388                           
  5389                           ;main.c: 270:         while (index < no_of_events)
  5390   0025F0  EF59  F013         	goto	l3076
  5391   0025F4                     l3024:
  5392                           
  5393                           ;main.c: 271:         {;main.c: 272:             for (int i = 0; i < 10; i++)
  5394   0025F4  0E00               	movlw	0
  5395   0025F6  6E20               	movwf	(download_log@i+1)^0,c
  5396   0025F8  0E00               	movlw	0
  5397   0025FA  6E1F               	movwf	download_log@i^0,c
  5398   0025FC                     l3030:
  5399                           
  5400                           ;main.c: 273:             {;main.c: 274:                 log[i] = read_external_EEPROM(a
      +                          dd++);
  5401   0025FC  501F               	movf	download_log@i^0,w,c
  5402   0025FE  0F09               	addlw	low download_log@log
  5403   002600  6ED9               	movwf	fsr2l,c
  5404   002602  6ADA               	clrf	fsr2h,c
  5405   002604  501C               	movf	download_log@add^0,w,c
  5406   002606  EC07  F00A         	call	_read_external_EEPROM
  5407   00260A  6EDF               	movwf	indf2,c
  5408   00260C  2A1C               	incf	download_log@add^0,f,c
  5409   00260E                     
  5410                           ;main.c: 275:             }
  5411   00260E  4A1F               	infsnz	download_log@i^0,f,c
  5412   002610  2A20               	incf	(download_log@i+1)^0,f,c
  5413   002612  BE20               	btfsc	(download_log@i+1)^0,7,c
  5414   002614  EF15  F013         	goto	u2231
  5415   002618  5020               	movf	(download_log@i+1)^0,w,c
  5416   00261A  E109               	bnz	u2230
  5417   00261C  0E0A               	movlw	10
  5418   00261E  5C1F               	subwf	download_log@i^0,w,c
  5419   002620  A0D8               	btfss	status,0,c
  5420   002622  EF15  F013         	goto	u2231
  5421   002626  EF17  F013         	goto	u2230
  5422   00262A                     u2231:
  5423   00262A  EFFE  F012         	goto	l3030
  5424   00262E                     u2230:
  5425   00262E                     
  5426                           ;main.c: 277:             putch(index + '0');
  5427   00262E  501D               	movf	download_log@index^0,w,c
  5428   002630  0F30               	addlw	48
  5429   002632  ECB0  F009         	call	_putch
  5430   002636                     
  5431                           ;main.c: 278:             puts("   ");
  5432   002636  0E24               	movlw	low (STR_5+13)
  5433   002638  6E02               	movwf	puts@s^0,c
  5434   00263A  0E2F               	movlw	high (STR_5+13)
  5435   00263C  6E03               	movwf	(puts@s+1)^0,c
  5436   00263E  EC31  F00A         	call	_puts	;wreg free
  5437   002642                     
  5438                           ;main.c: 280:             putch(log[0]);
  5439   002642  5009               	movf	download_log@log^0,w,c
  5440   002644  ECB0  F009         	call	_putch
  5441   002648                     
  5442                           ;main.c: 281:             putch(log[1]);
  5443   002648  500A               	movf	(download_log@log+1)^0,w,c
  5444   00264A  ECB0  F009         	call	_putch
  5445   00264E                     
  5446                           ;main.c: 282:             putch(':');
  5447   00264E  0E3A               	movlw	58
  5448   002650  ECB0  F009         	call	_putch
  5449   002654                     
  5450                           ;main.c: 284:             putch(log[2]);
  5451   002654  500B               	movf	(download_log@log+2)^0,w,c
  5452   002656  ECB0  F009         	call	_putch
  5453   00265A                     
  5454                           ;main.c: 285:             putch(log[3]);
  5455   00265A  500C               	movf	(download_log@log+3)^0,w,c
  5456   00265C  ECB0  F009         	call	_putch
  5457   002660                     
  5458                           ;main.c: 286:             putch(':');
  5459   002660  0E3A               	movlw	58
  5460   002662  ECB0  F009         	call	_putch
  5461   002666                     
  5462                           ;main.c: 288:             putch(log[4]);
  5463   002666  500D               	movf	(download_log@log+4)^0,w,c
  5464   002668  ECB0  F009         	call	_putch
  5465   00266C                     
  5466                           ;main.c: 289:             putch(log[5]);
  5467   00266C  500E               	movf	(download_log@log+5)^0,w,c
  5468   00266E  ECB0  F009         	call	_putch
  5469   002672                     
  5470                           ;main.c: 290:             puts("      ");
  5471   002672  0E21               	movlw	low (STR_5+10)
  5472   002674  6E02               	movwf	puts@s^0,c
  5473   002676  0E2F               	movlw	high (STR_5+10)
  5474   002678  6E03               	movwf	(puts@s+1)^0,c
  5475   00267A  EC31  F00A         	call	_puts	;wreg free
  5476   00267E                     
  5477                           ;main.c: 292:             putch(log[6]);
  5478   00267E  500F               	movf	(download_log@log+6)^0,w,c
  5479   002680  ECB0  F009         	call	_putch
  5480   002684                     
  5481                           ;main.c: 293:             putch(log[7]);
  5482   002684  5010               	movf	(download_log@log+7)^0,w,c
  5483   002686  ECB0  F009         	call	_putch
  5484   00268A                     
  5485                           ;main.c: 294:             puts("            ");
  5486   00268A  0E1B               	movlw	low (STR_5+4)
  5487   00268C  6E02               	movwf	puts@s^0,c
  5488   00268E  0E2F               	movlw	high (STR_5+4)
  5489   002690  6E03               	movwf	(puts@s+1)^0,c
  5490   002692  EC31  F00A         	call	_puts	;wreg free
  5491   002696                     
  5492                           ;main.c: 296:             putch(log[8]);
  5493   002696  5011               	movf	(download_log@log+8)^0,w,c
  5494   002698  ECB0  F009         	call	_putch
  5495   00269C                     
  5496                           ;main.c: 297:             putch(log[9]);
  5497   00269C  5012               	movf	(download_log@log+9)^0,w,c
  5498   00269E  ECB0  F009         	call	_putch
  5499   0026A2                     
  5500                           ;main.c: 298:             putch('\n');
  5501   0026A2  0E0A               	movlw	10
  5502   0026A4  ECB0  F009         	call	_putch
  5503   0026A8                     
  5504                           ;main.c: 299:             putch('\r');
  5505   0026A8  0E0D               	movlw	13
  5506   0026AA  ECB0  F009         	call	_putch
  5507   0026AE                     
  5508                           ;main.c: 300:             index++;
  5509   0026AE  4A1D               	infsnz	download_log@index^0,f,c
  5510   0026B0  2A1E               	incf	(download_log@index+1)^0,f,c
  5511   0026B2                     l3076:
  5512                           
  5513                           ;main.c: 270:         while (index < no_of_events)
  5514   0026B2  5052               	movf	_no_of_events^0,w,c
  5515   0026B4  6E06               	movwf	??_download_log^0,c
  5516   0026B6  6A07               	clrf	(??_download_log+1)^0,c
  5517   0026B8  5006               	movf	??_download_log^0,w,c
  5518   0026BA  5C1D               	subwf	download_log@index^0,w,c
  5519   0026BC  501E               	movf	(download_log@index+1)^0,w,c
  5520   0026BE  0A80               	xorlw	128
  5521   0026C0  6E08               	movwf	(??_download_log+2)^0,c
  5522   0026C2  5007               	movf	(??_download_log+1)^0,w,c
  5523   0026C4  0A80               	xorlw	128
  5524   0026C6  5808               	subwfb	(??_download_log+2)^0,w,c
  5525   0026C8  A0D8               	btfss	status,0,c
  5526   0026CA  EF69  F013         	goto	u2241
  5527   0026CE  EF6B  F013         	goto	u2240
  5528   0026D2                     u2241:
  5529   0026D2  EFFA  F012         	goto	l3024
  5530   0026D6                     u2240:
  5531   0026D6                     
  5532                           ;main.c: 302:         clcd_print("LOGS DOWNLOADED ",(0x80 + (0)));
  5533   0026D6  0E9F               	movlw	low STR_17
  5534   0026D8  6E03               	movwf	clcd_print@data^0,c
  5535   0026DA  0E2F               	movlw	high STR_17
  5536   0026DC  6E04               	movwf	(clcd_print@data+1)^0,c
  5537   0026DE  0E80               	movlw	128
  5538   0026E0  6E05               	movwf	clcd_print@addr^0,c
  5539   0026E2  EC0D  F00B         	call	_clcd_print	;wreg free
  5540                           
  5541                           ;main.c: 303:         clcd_print("SUCCESSFULLY :-)",(0xC0 + (0)));
  5542   0026E6  0EB0               	movlw	low STR_18
  5543   0026E8  6E03               	movwf	clcd_print@data^0,c
  5544   0026EA  0E2F               	movlw	high STR_18
  5545   0026EC  6E04               	movwf	(clcd_print@data+1)^0,c
  5546   0026EE  0EC0               	movlw	192
  5547   0026F0  6E05               	movwf	clcd_print@addr^0,c
  5548   0026F2  EC0D  F00B         	call	_clcd_print	;wreg free
  5549   0026F6                     
  5550                           ;main.c: 304:         for(unsigned long int delay1 = 1000000;delay1--;);
  5551   0026F6  0E40               	movlw	64
  5552   0026F8  6E18               	movwf	download_log@delay1_228^0,c
  5553   0026FA  0E42               	movlw	66
  5554   0026FC  6E19               	movwf	(download_log@delay1_228+1)^0,c
  5555   0026FE  0E0F               	movlw	15
  5556   002700  6E1A               	movwf	(download_log@delay1_228+2)^0,c
  5557   002702  0E00               	movlw	0
  5558   002704  6E1B               	movwf	(download_log@delay1_228+3)^0,c
  5559   002706                     l3082:
  5560   002706  0618               	decf	download_log@delay1_228^0,f,c
  5561   002708  0E00               	movlw	0
  5562   00270A  5A19               	subwfb	(download_log@delay1_228+1)^0,f,c
  5563   00270C  5A1A               	subwfb	(download_log@delay1_228+2)^0,f,c
  5564   00270E  5A1B               	subwfb	(download_log@delay1_228+3)^0,f,c
  5565   002710  2818               	incf	download_log@delay1_228^0,w,c
  5566   002712  E10A               	bnz	u2251
  5567   002714  2819               	incf	(download_log@delay1_228+1)^0,w,c
  5568   002716  E108               	bnz	u2251
  5569   002718  281A               	incf	(download_log@delay1_228+2)^0,w,c
  5570   00271A  E106               	bnz	u2251
  5571   00271C  281B               	incf	(download_log@delay1_228+3)^0,w,c
  5572   00271E  A4D8               	btfss	status,2,c
  5573   002720  EF94  F013         	goto	u2251
  5574   002724  EF96  F013         	goto	u2250
  5575   002728                     u2251:
  5576   002728  EF83  F013         	goto	l3082
  5577   00272C                     u2250:
  5578   00272C                     l3084:
  5579                           
  5580                           ;main.c: 306:     state = e_main_menu;
  5581   00272C  0E01               	movlw	1
  5582   00272E  6E58               	movwf	_state^0,c
  5583   002730                     
  5584                           ;main.c: 307:     clcd_write(0x01, 0);
  5585   002730  0E00               	movlw	0
  5586   002732  6E01               	movwf	clcd_write@control_bit^0,c
  5587   002734  0E01               	movlw	1
  5588   002736  EC4C  F00A         	call	_clcd_write
  5589   00273A  0012               	return		;funcret
  5590   00273C                     __end_of_download_log:
  5591                           	callstack 0
  5592                           
  5593 ;; *************** function _read_external_EEPROM *****************
  5594 ;; Defined at:
  5595 ;;		line 14 in file "at24c04.c"
  5596 ;; Parameters:    Size  Location     Type
  5597 ;;  address         1    wreg     unsigned char 
  5598 ;; Auto vars:     Size  Location     Type
  5599 ;;  address         1    1[COMRAM] unsigned char 
  5600 ;;  data            1    2[COMRAM] unsigned char 
  5601 ;; Return value:  Size  Location     Type
  5602 ;;                  1    wreg      unsigned char 
  5603 ;; Registers used:
  5604 ;;		wreg, status,2, cstack
  5605 ;; Tracked objects:
  5606 ;;		On entry : 0/0
  5607 ;;		On exit  : 0/0
  5608 ;;		Unchanged: 0/0
  5609 ;; Data sizes:     COMRAM   BANK0   BANK1   BANK2   BANK3   BANK4   BANK5
  5610 ;;      Params:         0       0       0       0       0       0       0
  5611 ;;      Locals:         2       0       0       0       0       0       0
  5612 ;;      Temps:          0       0       0       0       0       0       0
  5613 ;;      Totals:         2       0       0       0       0       0       0
  5614 ;;Total ram usage:        2 bytes
  5615 ;; Hardware stack levels used: 1
  5616 ;; Hardware stack levels required when called: 3
  5617 ;; This function calls:
  5618 ;;		_i2c_read
  5619 ;;		_i2c_rep_start
  5620 ;;		_i2c_start
  5621 ;;		_i2c_stop
  5622 ;;		_i2c_write
  5623 ;; This function is called by:
  5624 ;;		_event_store
  5625 ;;		_event_reader
  5626 ;;		_download_log
  5627 ;; This function uses a non-reentrant model
  5628 ;;
  5629                           
  5630                           	psect	text27
  5631   00140E                     __ptext27:
  5632                           	callstack 0
  5633   00140E                     _read_external_EEPROM:
  5634                           	callstack 25
  5635                           
  5636                           ;incstack = 0
  5637                           ;read_external_EEPROM@address stored from wreg
  5638   00140E  6E02               	movwf	read_external_EEPROM@address^0,c
  5639   001410                     
  5640                           ;at24c04.c: 14: unsigned char read_external_EEPROM(unsigned char address);at24c04.c: 15:
      +                           {;at24c04.c: 16:  unsigned char data;;at24c04.c: 18:  i2c_start();
  5641   001410  EC69  F009         	call	_i2c_start	;wreg free
  5642   001414                     
  5643                           ;at24c04.c: 19:  i2c_write(0xA0);
  5644   001414  0EA0               	movlw	160
  5645   001416  EC77  F009         	call	_i2c_write
  5646   00141A                     
  5647                           ;at24c04.c: 20:  i2c_write(address);
  5648   00141A  5002               	movf	read_external_EEPROM@address^0,w,c
  5649   00141C  EC77  F009         	call	_i2c_write
  5650   001420                     
  5651                           ;at24c04.c: 21:  i2c_rep_start();
  5652   001420  EC65  F009         	call	_i2c_rep_start	;wreg free
  5653   001424                     
  5654                           ;at24c04.c: 22:  i2c_write(0xA1);
  5655   001424  0EA1               	movlw	161
  5656   001426  EC77  F009         	call	_i2c_write
  5657                           
  5658                           ;at24c04.c: 23:  data = i2c_read();
  5659   00142A  EC71  F009         	call	_i2c_read	;wreg free
  5660   00142E  6E03               	movwf	read_external_EEPROM@data^0,c
  5661   001430                     
  5662                           ;at24c04.c: 24:  i2c_stop();
  5663   001430  EC6D  F009         	call	_i2c_stop	;wreg free
  5664                           
  5665                           ;at24c04.c: 25:  return data;
  5666   001434  5003               	movf	read_external_EEPROM@data^0,w,c
  5667   001436  0012               	return		;funcret
  5668   001438                     __end_of_read_external_EEPROM:
  5669                           	callstack 0
  5670                           
  5671 ;; *************** function _i2c_write *****************
  5672 ;; Defined at:
  5673 ;;		line 55 in file "i2c.c"
  5674 ;; Parameters:    Size  Location     Type
  5675 ;;  data            1    wreg     unsigned char 
  5676 ;; Auto vars:     Size  Location     Type
  5677 ;;  data            1    0[COMRAM] unsigned char 
  5678 ;; Return value:  Size  Location     Type
  5679 ;;                  1    wreg      void 
  5680 ;; Registers used:
  5681 ;;		wreg, cstack
  5682 ;; Tracked objects:
  5683 ;;		On entry : 0/0
  5684 ;;		On exit  : 0/0
  5685 ;;		Unchanged: 0/0
  5686 ;; Data sizes:     COMRAM   BANK0   BANK1   BANK2   BANK3   BANK4   BANK5
  5687 ;;      Params:         0       0       0       0       0       0       0
  5688 ;;      Locals:         1       0       0       0       0       0       0
  5689 ;;      Temps:          0       0       0       0       0       0       0
  5690 ;;      Totals:         1       0       0       0       0       0       0
  5691 ;;Total ram usage:        1 bytes
  5692 ;; Hardware stack levels used: 1
  5693 ;; Hardware stack levels required when called: 1
  5694 ;; This function calls:
  5695 ;;		_i2c_idle
  5696 ;; This function is called by:
  5697 ;;		_write_ds1307
  5698 ;;		_read_ds1307
  5699 ;;		_write_external_EEPROM
  5700 ;;		_read_external_EEPROM
  5701 ;; This function uses a non-reentrant model
  5702 ;;
  5703                           
  5704                           	psect	text28
  5705   0012EE                     __ptext28:
  5706                           	callstack 0
  5707   0012EE                     _i2c_write:
  5708                           	callstack 26
  5709                           
  5710                           ;incstack = 0
  5711                           ;i2c_write@data stored from wreg
  5712   0012EE  6E01               	movwf	i2c_write@data^0,c
  5713   0012F0                     
  5714                           ;i2c.c: 55: void i2c_write(unsigned char data);i2c.c: 56: {;i2c.c: 57:  SSPBUF = data;
  5715   0012F0  C001  FFC9         	movff	i2c_write@data,4041	;volatile
  5716   0012F4                     
  5717                           ;i2c.c: 58:  i2c_idle();
  5718   0012F4  EC7D  F009         	call	_i2c_idle	;wreg free
  5719   0012F8  0012               	return		;funcret
  5720   0012FA                     __end_of_i2c_write:
  5721                           	callstack 0
  5722                           
  5723 ;; *************** function _i2c_stop *****************
  5724 ;; Defined at:
  5725 ;;		line 43 in file "i2c.c"
  5726 ;; Parameters:    Size  Location     Type
  5727 ;;		None
  5728 ;; Auto vars:     Size  Location     Type
  5729 ;;		None
  5730 ;; Return value:  Size  Location     Type
  5731 ;;                  1    wreg      void 
  5732 ;; Registers used:
  5733 ;;		cstack
  5734 ;; Tracked objects:
  5735 ;;		On entry : 0/0
  5736 ;;		On exit  : 0/0
  5737 ;;		Unchanged: 0/0
  5738 ;; Data sizes:     COMRAM   BANK0   BANK1   BANK2   BANK3   BANK4   BANK5
  5739 ;;      Params:         0       0       0       0       0       0       0
  5740 ;;      Locals:         0       0       0       0       0       0       0
  5741 ;;      Temps:          0       0       0       0       0       0       0
  5742 ;;      Totals:         0       0       0       0       0       0       0
  5743 ;;Total ram usage:        0 bytes
  5744 ;; Hardware stack levels used: 1
  5745 ;; Hardware stack levels required when called: 1
  5746 ;; This function calls:
  5747 ;;		_i2c_idle
  5748 ;; This function is called by:
  5749 ;;		_write_ds1307
  5750 ;;		_read_ds1307
  5751 ;;		_write_external_EEPROM
  5752 ;;		_read_external_EEPROM
  5753 ;; This function uses a non-reentrant model
  5754 ;;
  5755                           
  5756                           	psect	text29
  5757   0012DA                     __ptext29:
  5758                           	callstack 0
  5759   0012DA                     _i2c_stop:
  5760                           	callstack 26
  5761   0012DA                     
  5762                           ;i2c.c: 45:  PEN = 1;
  5763   0012DA  84C5               	bsf	4037,2,c	;volatile
  5764   0012DC                     
  5765                           ;i2c.c: 46:  i2c_idle();
  5766   0012DC  EC7D  F009         	call	_i2c_idle	;wreg free
  5767   0012E0  0012               	return		;funcret
  5768   0012E2                     __end_of_i2c_stop:
  5769                           	callstack 0
  5770                           
  5771 ;; *************** function _i2c_start *****************
  5772 ;; Defined at:
  5773 ;;		line 37 in file "i2c.c"
  5774 ;; Parameters:    Size  Location     Type
  5775 ;;		None
  5776 ;; Auto vars:     Size  Location     Type
  5777 ;;		None
  5778 ;; Return value:  Size  Location     Type
  5779 ;;                  1    wreg      void 
  5780 ;; Registers used:
  5781 ;;		cstack
  5782 ;; Tracked objects:
  5783 ;;		On entry : 0/0
  5784 ;;		On exit  : 0/0
  5785 ;;		Unchanged: 0/0
  5786 ;; Data sizes:     COMRAM   BANK0   BANK1   BANK2   BANK3   BANK4   BANK5
  5787 ;;      Params:         0       0       0       0       0       0       0
  5788 ;;      Locals:         0       0       0       0       0       0       0
  5789 ;;      Temps:          0       0       0       0       0       0       0
  5790 ;;      Totals:         0       0       0       0       0       0       0
  5791 ;;Total ram usage:        0 bytes
  5792 ;; Hardware stack levels used: 1
  5793 ;; Hardware stack levels required when called: 1
  5794 ;; This function calls:
  5795 ;;		_i2c_idle
  5796 ;; This function is called by:
  5797 ;;		_write_ds1307
  5798 ;;		_read_ds1307
  5799 ;;		_write_external_EEPROM
  5800 ;;		_read_external_EEPROM
  5801 ;; This function uses a non-reentrant model
  5802 ;;
  5803                           
  5804                           	psect	text30
  5805   0012D2                     __ptext30:
  5806                           	callstack 0
  5807   0012D2                     _i2c_start:
  5808                           	callstack 26
  5809   0012D2                     
  5810                           ;i2c.c: 39:  SEN = 1;
  5811   0012D2  80C5               	bsf	4037,0,c	;volatile
  5812   0012D4                     
  5813                           ;i2c.c: 40:  i2c_idle();
  5814   0012D4  EC7D  F009         	call	_i2c_idle	;wreg free
  5815   0012D8  0012               	return		;funcret
  5816   0012DA                     __end_of_i2c_start:
  5817                           	callstack 0
  5818                           
  5819 ;; *************** function _i2c_rep_start *****************
  5820 ;; Defined at:
  5821 ;;		line 49 in file "i2c.c"
  5822 ;; Parameters:    Size  Location     Type
  5823 ;;		None
  5824 ;; Auto vars:     Size  Location     Type
  5825 ;;		None
  5826 ;; Return value:  Size  Location     Type
  5827 ;;                  1    wreg      void 
  5828 ;; Registers used:
  5829 ;;		cstack
  5830 ;; Tracked objects:
  5831 ;;		On entry : 0/0
  5832 ;;		On exit  : 0/0
  5833 ;;		Unchanged: 0/0
  5834 ;; Data sizes:     COMRAM   BANK0   BANK1   BANK2   BANK3   BANK4   BANK5
  5835 ;;      Params:         0       0       0       0       0       0       0
  5836 ;;      Locals:         0       0       0       0       0       0       0
  5837 ;;      Temps:          0       0       0       0       0       0       0
  5838 ;;      Totals:         0       0       0       0       0       0       0
  5839 ;;Total ram usage:        0 bytes
  5840 ;; Hardware stack levels used: 1
  5841 ;; Hardware stack levels required when called: 1
  5842 ;; This function calls:
  5843 ;;		_i2c_idle
  5844 ;; This function is called by:
  5845 ;;		_read_ds1307
  5846 ;;		_read_external_EEPROM
  5847 ;; This function uses a non-reentrant model
  5848 ;;
  5849                           
  5850                           	psect	text31
  5851   0012CA                     __ptext31:
  5852                           	callstack 0
  5853   0012CA                     _i2c_rep_start:
  5854                           	callstack 26
  5855   0012CA                     
  5856                           ;i2c.c: 51:  RSEN = 1;
  5857   0012CA  82C5               	bsf	4037,1,c	;volatile
  5858   0012CC                     
  5859                           ;i2c.c: 52:  i2c_idle();
  5860   0012CC  EC7D  F009         	call	_i2c_idle	;wreg free
  5861   0012D0  0012               	return		;funcret
  5862   0012D2                     __end_of_i2c_rep_start:
  5863                           	callstack 0
  5864                           
  5865 ;; *************** function _i2c_read *****************
  5866 ;; Defined at:
  5867 ;;		line 73 in file "i2c.c"
  5868 ;; Parameters:    Size  Location     Type
  5869 ;;		None
  5870 ;; Auto vars:     Size  Location     Type
  5871 ;;		None
  5872 ;; Return value:  Size  Location     Type
  5873 ;;                  1    wreg      unsigned char 
  5874 ;; Registers used:
  5875 ;;		wreg, status,2, cstack
  5876 ;; Tracked objects:
  5877 ;;		On entry : 0/0
  5878 ;;		On exit  : 0/0
  5879 ;;		Unchanged: 0/0
  5880 ;; Data sizes:     COMRAM   BANK0   BANK1   BANK2   BANK3   BANK4   BANK5
  5881 ;;      Params:         0       0       0       0       0       0       0
  5882 ;;      Locals:         0       0       0       0       0       0       0
  5883 ;;      Temps:          0       0       0       0       0       0       0
  5884 ;;      Totals:         0       0       0       0       0       0       0
  5885 ;;Total ram usage:        0 bytes
  5886 ;; Hardware stack levels used: 1
  5887 ;; Hardware stack levels required when called: 2
  5888 ;; This function calls:
  5889 ;;		_i2c_no_ack
  5890 ;;		_i2c_rx_mode
  5891 ;; This function is called by:
  5892 ;;		_read_ds1307
  5893 ;;		_read_external_EEPROM
  5894 ;; This function uses a non-reentrant model
  5895 ;;
  5896                           
  5897                           	psect	text32
  5898   0012E2                     __ptext32:
  5899                           	callstack 0
  5900   0012E2                     _i2c_read:
  5901                           	callstack 25
  5902   0012E2                     
  5903                           ;i2c.c: 75:  i2c_rx_mode();
  5904   0012E2  EC61  F009         	call	_i2c_rx_mode	;wreg free
  5905                           
  5906                           ;i2c.c: 76:  i2c_no_ack();
  5907   0012E6  EC5E  F009         	call	_i2c_no_ack	;wreg free
  5908   0012EA                     
  5909                           ;i2c.c: 78:  return SSPBUF;
  5910   0012EA  50C9               	movf	201,w,c	;volatile
  5911   0012EC  0012               	return		;funcret
  5912   0012EE                     __end_of_i2c_read:
  5913                           	callstack 0
  5914                           
  5915 ;; *************** function _i2c_rx_mode *****************
  5916 ;; Defined at:
  5917 ;;		line 61 in file "i2c.c"
  5918 ;; Parameters:    Size  Location     Type
  5919 ;;		None
  5920 ;; Auto vars:     Size  Location     Type
  5921 ;;		None
  5922 ;; Return value:  Size  Location     Type
  5923 ;;                  1    wreg      void 
  5924 ;; Registers used:
  5925 ;;		cstack
  5926 ;; Tracked objects:
  5927 ;;		On entry : 0/0
  5928 ;;		On exit  : 0/0
  5929 ;;		Unchanged: 0/0
  5930 ;; Data sizes:     COMRAM   BANK0   BANK1   BANK2   BANK3   BANK4   BANK5
  5931 ;;      Params:         0       0       0       0       0       0       0
  5932 ;;      Locals:         0       0       0       0       0       0       0
  5933 ;;      Temps:          0       0       0       0       0       0       0
  5934 ;;      Totals:         0       0       0       0       0       0       0
  5935 ;;Total ram usage:        0 bytes
  5936 ;; Hardware stack levels used: 1
  5937 ;; Hardware stack levels required when called: 1
  5938 ;; This function calls:
  5939 ;;		_i2c_idle
  5940 ;; This function is called by:
  5941 ;;		_i2c_read
  5942 ;; This function uses a non-reentrant model
  5943 ;;
  5944                           
  5945                           	psect	text33
  5946   0012C2                     __ptext33:
  5947                           	callstack 0
  5948   0012C2                     _i2c_rx_mode:
  5949                           	callstack 25
  5950   0012C2                     
  5951                           ;i2c.c: 63:  RCEN = 1;
  5952   0012C2  86C5               	bsf	4037,3,c	;volatile
  5953   0012C4                     
  5954                           ;i2c.c: 64:  i2c_idle();
  5955   0012C4  EC7D  F009         	call	_i2c_idle	;wreg free
  5956   0012C8  0012               	return		;funcret
  5957   0012CA                     __end_of_i2c_rx_mode:
  5958                           	callstack 0
  5959                           
  5960 ;; *************** function _i2c_idle *****************
  5961 ;; Defined at:
  5962 ;;		line 23 in file "i2c.c"
  5963 ;; Parameters:    Size  Location     Type
  5964 ;;		None
  5965 ;; Auto vars:     Size  Location     Type
  5966 ;;		None
  5967 ;; Return value:  Size  Location     Type
  5968 ;;                  1    wreg      void 
  5969 ;; Registers used:
  5970 ;;		None
  5971 ;; Tracked objects:
  5972 ;;		On entry : 0/0
  5973 ;;		On exit  : 0/0
  5974 ;;		Unchanged: 0/0
  5975 ;; Data sizes:     COMRAM   BANK0   BANK1   BANK2   BANK3   BANK4   BANK5
  5976 ;;      Params:         0       0       0       0       0       0       0
  5977 ;;      Locals:         0       0       0       0       0       0       0
  5978 ;;      Temps:          0       0       0       0       0       0       0
  5979 ;;      Totals:         0       0       0       0       0       0       0
  5980 ;;Total ram usage:        0 bytes
  5981 ;; Hardware stack levels used: 1
  5982 ;; This function calls:
  5983 ;;		Nothing
  5984 ;; This function is called by:
  5985 ;;		_i2c_start
  5986 ;;		_i2c_stop
  5987 ;;		_i2c_rep_start
  5988 ;;		_i2c_write
  5989 ;;		_i2c_rx_mode
  5990 ;; This function uses a non-reentrant model
  5991 ;;
  5992                           
  5993                           	psect	text34
  5994   0012FA                     __ptext34:
  5995                           	callstack 0
  5996   0012FA                     _i2c_idle:
  5997                           	callstack 26
  5998   0012FA                     l473:
  5999   0012FA  A69E               	btfss	3998,3,c	;volatile
  6000   0012FC  EF82  F009         	goto	u1281
  6001   001300  EF84  F009         	goto	u1280
  6002   001304                     u1281:
  6003   001304  EF7D  F009         	goto	l473
  6004   001308                     u1280:
  6005   001308                     
  6006                           ;i2c.c: 26:  SSPIF = 0;
  6007   001308  969E               	bcf	3998,3,c	;volatile
  6008   00130A  0012               	return		;funcret
  6009   00130C                     __end_of_i2c_idle:
  6010                           	callstack 0
  6011                           
  6012 ;; *************** function _i2c_no_ack *****************
  6013 ;; Defined at:
  6014 ;;		line 67 in file "i2c.c"
  6015 ;; Parameters:    Size  Location     Type
  6016 ;;		None
  6017 ;; Auto vars:     Size  Location     Type
  6018 ;;		None
  6019 ;; Return value:  Size  Location     Type
  6020 ;;                  1    wreg      void 
  6021 ;; Registers used:
  6022 ;;		None
  6023 ;; Tracked objects:
  6024 ;;		On entry : 0/0
  6025 ;;		On exit  : 0/0
  6026 ;;		Unchanged: 0/0
  6027 ;; Data sizes:     COMRAM   BANK0   BANK1   BANK2   BANK3   BANK4   BANK5
  6028 ;;      Params:         0       0       0       0       0       0       0
  6029 ;;      Locals:         0       0       0       0       0       0       0
  6030 ;;      Temps:          0       0       0       0       0       0       0
  6031 ;;      Totals:         0       0       0       0       0       0       0
  6032 ;;Total ram usage:        0 bytes
  6033 ;; Hardware stack levels used: 1
  6034 ;; This function calls:
  6035 ;;		Nothing
  6036 ;; This function is called by:
  6037 ;;		_i2c_read
  6038 ;; This function uses a non-reentrant model
  6039 ;;
  6040                           
  6041                           	psect	text35
  6042   0012BC                     __ptext35:
  6043                           	callstack 0
  6044   0012BC                     _i2c_no_ack:
  6045                           	callstack 26
  6046   0012BC                     
  6047                           ;i2c.c: 69:  ACKDT = 1;
  6048   0012BC  8AC5               	bsf	4037,5,c	;volatile
  6049                           
  6050                           ;i2c.c: 70:  ACKEN = 1;
  6051   0012BE  88C5               	bsf	4037,4,c	;volatile
  6052   0012C0  0012               	return		;funcret
  6053   0012C2                     __end_of_i2c_no_ack:
  6054                           	callstack 0
  6055                           
  6056 ;; *************** function _puts *****************
  6057 ;; Defined at:
  6058 ;;		line 58 in file "uart.c"
  6059 ;; Parameters:    Size  Location     Type
  6060 ;;  s               2    1[COMRAM] PTR const unsigned char 
  6061 ;;		 -> STR_16(13), STR_15(7), STR_14(4), STR_13(36), 
  6062 ;;		 -> STR_12(7), STR_11(18), 
  6063 ;; Auto vars:     Size  Location     Type
  6064 ;;		None
  6065 ;; Return value:  Size  Location     Type
  6066 ;;                  2    1[COMRAM] int 
  6067 ;; Registers used:
  6068 ;;		wreg, status,2, status,0, tblptrl, tblptrh, tblptru, cstack
  6069 ;; Tracked objects:
  6070 ;;		On entry : 0/0
  6071 ;;		On exit  : 0/0
  6072 ;;		Unchanged: 0/0
  6073 ;; Data sizes:     COMRAM   BANK0   BANK1   BANK2   BANK3   BANK4   BANK5
  6074 ;;      Params:         2       0       0       0       0       0       0
  6075 ;;      Locals:         0       0       0       0       0       0       0
  6076 ;;      Temps:          0       0       0       0       0       0       0
  6077 ;;      Totals:         2       0       0       0       0       0       0
  6078 ;;Total ram usage:        2 bytes
  6079 ;; Hardware stack levels used: 1
  6080 ;; Hardware stack levels required when called: 1
  6081 ;; This function calls:
  6082 ;;		_putch
  6083 ;; This function is called by:
  6084 ;;		_download_log
  6085 ;; This function uses a non-reentrant model
  6086 ;;
  6087                           
  6088                           	psect	text36
  6089   001462                     __ptext36:
  6090                           	callstack 0
  6091   001462                     _puts:
  6092                           	callstack 28
  6093   001462                     
  6094                           ;uart.c: 58: int puts(const char *s);uart.c: 59: {;uart.c: 60:  while(*s)
  6095   001462  EF3D  F00A         	goto	l2592
  6096   001466                     l2588:
  6097                           
  6098                           ;uart.c: 61:  {;uart.c: 62:   putch(*s++);
  6099   001466  C002  FFF6         	movff	puts@s,tblptrl
  6100   00146A  C003  FFF7         	movff	puts@s+1,tblptrh
  6101   00146E                     	if	0	;tblptru may be non-zero
  6102   00146E                     	endif
  6103   00146E                     	if	0	;tblptru may be non-zero
  6104   00146E                     	endif
  6105   00146E  0008               	tblrd		*
  6106   001470  50F5               	movf	tablat,w,c
  6107   001472  ECB0  F009         	call	_putch
  6108   001476  4A02               	infsnz	puts@s^0,f,c
  6109   001478  2A03               	incf	(puts@s+1)^0,f,c
  6110   00147A                     l2592:
  6111                           
  6112                           ;uart.c: 60:  while(*s)
  6113   00147A  C002  FFF6         	movff	puts@s,tblptrl
  6114   00147E  C003  FFF7         	movff	puts@s+1,tblptrh
  6115   001482                     	if	0	;tblptru may be non-zero
  6116   001482                     	endif
  6117   001482                     	if	0	;tblptru may be non-zero
  6118   001482                     	endif
  6119   001482  0008               	tblrd		*
  6120   001484  50F5               	movf	tablat,w,c
  6121   001486  0900               	iorlw	0
  6122   001488  A4D8               	btfss	status,2,c
  6123   00148A  EF49  F00A         	goto	u1531
  6124   00148E  EF4B  F00A         	goto	u1530
  6125   001492                     u1531:
  6126   001492  EF33  F00A         	goto	l2588
  6127   001496                     u1530:
  6128   001496  0012               	return		;funcret
  6129   001498                     __end_of_puts:
  6130                           	callstack 0
  6131                           
  6132 ;; *************** function _putch *****************
  6133 ;; Defined at:
  6134 ;;		line 46 in file "uart.c"
  6135 ;; Parameters:    Size  Location     Type
  6136 ;;  byte            1    wreg     unsigned char 
  6137 ;; Auto vars:     Size  Location     Type
  6138 ;;  byte            1    0[COMRAM] unsigned char 
  6139 ;; Return value:  Size  Location     Type
  6140 ;;                  1    wreg      void 
  6141 ;; Registers used:
  6142 ;;		wreg
  6143 ;; Tracked objects:
  6144 ;;		On entry : 0/0
  6145 ;;		On exit  : 0/0
  6146 ;;		Unchanged: 0/0
  6147 ;; Data sizes:     COMRAM   BANK0   BANK1   BANK2   BANK3   BANK4   BANK5
  6148 ;;      Params:         0       0       0       0       0       0       0
  6149 ;;      Locals:         1       0       0       0       0       0       0
  6150 ;;      Temps:          0       0       0       0       0       0       0
  6151 ;;      Totals:         1       0       0       0       0       0       0
  6152 ;;Total ram usage:        1 bytes
  6153 ;; Hardware stack levels used: 1
  6154 ;; This function calls:
  6155 ;;		Nothing
  6156 ;; This function is called by:
  6157 ;;		_download_log
  6158 ;;		_puts
  6159 ;;		_getche
  6160 ;; This function uses a non-reentrant model
  6161 ;;
  6162                           
  6163                           	psect	text37
  6164   001360                     __ptext37:
  6165                           	callstack 0
  6166   001360                     _putch:
  6167                           	callstack 28
  6168                           
  6169                           ;incstack = 0
  6170                           ;putch@byte stored from wreg
  6171   001360  6E01               	movwf	putch@byte^0,c
  6172   001362                     l394:
  6173                           
  6174                           ;uart.c: 50:  while(!TXIF)
  6175   001362  A89E               	btfss	3998,4,c	;volatile
  6176   001364  EFB6  F009         	goto	u101
  6177   001368  EFB8  F009         	goto	u100
  6178   00136C                     u101:
  6179   00136C  EFB1  F009         	goto	l394
  6180   001370                     u100:
  6181   001370                     
  6182                           ;uart.c: 54:  TXIF = 0;
  6183   001370  989E               	bcf	3998,4,c	;volatile
  6184   001372                     
  6185                           ;uart.c: 55:  TXREG = byte;
  6186   001372  C001  FFAD         	movff	putch@byte,4013	;volatile
  6187   001376  0012               	return		;funcret
  6188   001378                     __end_of_putch:
  6189                           	callstack 0
  6190                           
  6191 ;; *************** function _display_main_menu *****************
  6192 ;; Defined at:
  6193 ;;		line 128 in file "main.c"
  6194 ;; Parameters:    Size  Location     Type
  6195 ;;		None
  6196 ;; Auto vars:     Size  Location     Type
  6197 ;;		None
  6198 ;; Return value:  Size  Location     Type
  6199 ;;                  1    wreg      void 
  6200 ;; Registers used:
  6201 ;;		wreg, fsr0l, fsr0h, status,2, status,0, tblptrl, tblptrh, tblptru, prodl, prodh, cstack
  6202 ;; Tracked objects:
  6203 ;;		On entry : 0/0
  6204 ;;		On exit  : 0/0
  6205 ;;		Unchanged: 0/0
  6206 ;; Data sizes:     COMRAM   BANK0   BANK1   BANK2   BANK3   BANK4   BANK5
  6207 ;;      Params:         0       0       0       0       0       0       0
  6208 ;;      Locals:         0       0       0       0       0       0       0
  6209 ;;      Temps:          1       0       0       0       0       0       0
  6210 ;;      Totals:         1       0       0       0       0       0       0
  6211 ;;Total ram usage:        1 bytes
  6212 ;; Hardware stack levels used: 1
  6213 ;; Hardware stack levels required when called: 2
  6214 ;; This function calls:
  6215 ;;		_clcd_print
  6216 ;;		_clcd_putch
  6217 ;;		_clcd_write
  6218 ;; This function is called by:
  6219 ;;		_main
  6220 ;; This function uses a non-reentrant model
  6221 ;;
  6222                           
  6223                           	psect	text38
  6224   001C16                     __ptext38:
  6225                           	callstack 0
  6226   001C16                     _display_main_menu:
  6227                           	callstack 28
  6228   001C16                     
  6229                           ;main.c: 130:     if (flag1 == 0) {
  6230   001C16  5054               	movf	_flag1^0,w,c
  6231   001C18  A4D8               	btfss	status,2,c
  6232   001C1A  EF11  F00E         	goto	u2031
  6233   001C1E  EF13  F00E         	goto	u2030
  6234   001C22                     u2031:
  6235   001C22  EF1F  F00E         	goto	l2894
  6236   001C26                     u2030:
  6237   001C26                     
  6238                           ;main.c: 131:         clcd_putch('*', (0x80 + (0)));
  6239   001C26  0E80               	movlw	128
  6240   001C28  6E08               	movwf	clcd_putch@addr^0,c
  6241   001C2A  0E2A               	movlw	42
  6242   001C2C  ECA4  F009         	call	_clcd_putch
  6243                           
  6244                           ;main.c: 132:         clcd_putch(' ', (0xC0 + (0)));
  6245   001C30  0EC0               	movlw	192
  6246   001C32  6E08               	movwf	clcd_putch@addr^0,c
  6247   001C34  0E20               	movlw	32
  6248   001C36  ECA4  F009         	call	_clcd_putch
  6249                           
  6250                           ;main.c: 133:     } else if (flag1 == 1) {
  6251   001C3A  EF31  F00E         	goto	l2898
  6252   001C3E                     l2894:
  6253   001C3E  0454               	decf	_flag1^0,w,c
  6254   001C40  A4D8               	btfss	status,2,c
  6255   001C42  EF25  F00E         	goto	u2041
  6256   001C46  EF27  F00E         	goto	u2040
  6257   001C4A                     u2041:
  6258   001C4A  EF31  F00E         	goto	l2898
  6259   001C4E                     u2040:
  6260   001C4E                     
  6261                           ;main.c: 134:         clcd_putch('*', (0xC0 + (0)));
  6262   001C4E  0EC0               	movlw	192
  6263   001C50  6E08               	movwf	clcd_putch@addr^0,c
  6264   001C52  0E2A               	movlw	42
  6265   001C54  ECA4  F009         	call	_clcd_putch
  6266                           
  6267                           ;main.c: 135:         clcd_putch(' ', (0x80 + (0)));
  6268   001C58  0E80               	movlw	128
  6269   001C5A  6E08               	movwf	clcd_putch@addr^0,c
  6270   001C5C  0E20               	movlw	32
  6271   001C5E  ECA4  F009         	call	_clcd_putch
  6272   001C62                     l2898:
  6273                           
  6274                           ;main.c: 138:     clcd_print(menu[menu_index], (0x80 + (2)));
  6275   001C62  5056               	movf	_menu_index^0,w,c
  6276   001C64  0D10               	mullw	16
  6277   001C66  50F3               	movf	243,w,c
  6278   001C68  0F60               	addlw	low _menu
  6279   001C6A  6E0A               	movwf	??_display_main_menu^0,c
  6280   001C6C  C00A  F003         	movff	??_display_main_menu,clcd_print@data
  6281   001C70  6A04               	clrf	(clcd_print@data+1)^0,c
  6282   001C72  0E82               	movlw	130
  6283   001C74  6E05               	movwf	clcd_print@addr^0,c
  6284   001C76  EC0D  F00B         	call	_clcd_print	;wreg free
  6285   001C7A                     
  6286                           ;main.c: 139:     clcd_print(menu[menu_index + 1], (0xC0 + (2)));
  6287   001C7A  5056               	movf	_menu_index^0,w,c
  6288   001C7C  0D10               	mullw	16
  6289   001C7E  50F3               	movf	243,w,c
  6290   001C80  0F70               	addlw	low (_menu+16)
  6291   001C82  6E0A               	movwf	??_display_main_menu^0,c
  6292   001C84  C00A  F003         	movff	??_display_main_menu,clcd_print@data
  6293   001C88  6A04               	clrf	(clcd_print@data+1)^0,c
  6294   001C8A  0EC2               	movlw	194
  6295   001C8C  6E05               	movwf	clcd_print@addr^0,c
  6296   001C8E  EC0D  F00B         	call	_clcd_print	;wreg free
  6297   001C92                     
  6298                           ;main.c: 141:     if (key == 2) {
  6299   001C92  0E02               	movlw	2
  6300   001C94  1857               	xorwf	_key^0,w,c
  6301   001C96  A4D8               	btfss	status,2,c
  6302   001C98  EF50  F00E         	goto	u2051
  6303   001C9C  EF52  F00E         	goto	u2050
  6304   001CA0                     u2051:
  6305   001CA0  EF6E  F00E         	goto	l2916
  6306   001CA4                     u2050:
  6307   001CA4                     
  6308                           ;main.c: 142:         if (flag1 == 0)
  6309   001CA4  5054               	movf	_flag1^0,w,c
  6310   001CA6  A4D8               	btfss	status,2,c
  6311   001CA8  EF58  F00E         	goto	u2061
  6312   001CAC  EF5A  F00E         	goto	u2060
  6313   001CB0                     u2061:
  6314   001CB0  EF5E  F00E         	goto	l2908
  6315   001CB4                     u2060:
  6316   001CB4                     
  6317                           ;main.c: 143:             flag1 = 0;
  6318   001CB4  0E00               	movlw	0
  6319   001CB6  6E54               	movwf	_flag1^0,c
  6320   001CB8  EF6C  F00E         	goto	l2914
  6321   001CBC                     l2908:
  6322   001CBC  0E02               	movlw	2
  6323   001CBE  6056               	cpfslt	_menu_index^0,c
  6324   001CC0  EF64  F00E         	goto	u2071
  6325   001CC4  EF66  F00E         	goto	u2070
  6326   001CC8                     u2071:
  6327   001CC8  EF6C  F00E         	goto	l2914
  6328   001CCC                     u2070:
  6329   001CCC                     
  6330                           ;main.c: 145:             clcd_write(0x01, 0);
  6331   001CCC  0E00               	movlw	0
  6332   001CCE  6E01               	movwf	clcd_write@control_bit^0,c
  6333   001CD0  0E01               	movlw	1
  6334   001CD2  EC4C  F00A         	call	_clcd_write
  6335   001CD6                     
  6336                           ;main.c: 146:             menu_index++;
  6337   001CD6  2A56               	incf	_menu_index^0,f,c
  6338   001CD8                     l2914:
  6339                           
  6340                           ;main.c: 148:         flag1 = 1;
  6341   001CD8  0E01               	movlw	1
  6342   001CDA  6E54               	movwf	_flag1^0,c
  6343   001CDC                     l2916:
  6344                           
  6345                           ;main.c: 151:     if (key == 1) {
  6346   001CDC  0457               	decf	_key^0,w,c
  6347   001CDE  A4D8               	btfss	status,2,c
  6348   001CE0  EF74  F00E         	goto	u2081
  6349   001CE4  EF76  F00E         	goto	u2080
  6350   001CE8                     u2081:
  6351   001CE8  EF92  F00E         	goto	l2930
  6352   001CEC                     u2080:
  6353   001CEC                     
  6354                           ;main.c: 152:         if (flag1 == 1)
  6355   001CEC  0454               	decf	_flag1^0,w,c
  6356   001CEE  A4D8               	btfss	status,2,c
  6357   001CF0  EF7C  F00E         	goto	u2091
  6358   001CF4  EF7E  F00E         	goto	u2090
  6359   001CF8                     u2091:
  6360   001CF8  EF82  F00E         	goto	l2922
  6361   001CFC                     u2090:
  6362   001CFC                     
  6363                           ;main.c: 153:             flag1 = 1;
  6364   001CFC  0E01               	movlw	1
  6365   001CFE  6E54               	movwf	_flag1^0,c
  6366   001D00  EF90  F00E         	goto	l2928
  6367   001D04                     l2922:
  6368   001D04  5056               	movf	_menu_index^0,w,c
  6369   001D06  B4D8               	btfsc	status,2,c
  6370   001D08  EF88  F00E         	goto	u2101
  6371   001D0C  EF8A  F00E         	goto	u2100
  6372   001D10                     u2101:
  6373   001D10  EF90  F00E         	goto	l2928
  6374   001D14                     u2100:
  6375   001D14                     
  6376                           ;main.c: 155:             menu_index--;
  6377   001D14  0656               	decf	_menu_index^0,f,c
  6378   001D16                     
  6379                           ;main.c: 156:             clcd_write(0x01, 0);
  6380   001D16  0E00               	movlw	0
  6381   001D18  6E01               	movwf	clcd_write@control_bit^0,c
  6382   001D1A  0E01               	movlw	1
  6383   001D1C  EC4C  F00A         	call	_clcd_write
  6384   001D20                     l2928:
  6385                           
  6386                           ;main.c: 158:         flag1 = 0;
  6387   001D20  0E00               	movlw	0
  6388   001D22  6E54               	movwf	_flag1^0,c
  6389   001D24                     l2930:
  6390                           
  6391                           ;main.c: 161:     if (key == 12) {
  6392   001D24  0E0C               	movlw	12
  6393   001D26  1857               	xorwf	_key^0,w,c
  6394   001D28  A4D8               	btfss	status,2,c
  6395   001D2A  EF99  F00E         	goto	u2111
  6396   001D2E  EF9B  F00E         	goto	u2110
  6397   001D32                     u2111:
  6398   001D32  EFA2  F00E         	goto	l2936
  6399   001D36                     u2110:
  6400   001D36                     
  6401                           ;main.c: 162:         state = e_dashboard;
  6402   001D36  0E00               	movlw	0
  6403   001D38  6E58               	movwf	_state^0,c
  6404   001D3A                     
  6405                           ;main.c: 163:         clcd_write(0x01, 0);
  6406   001D3A  0E00               	movlw	0
  6407   001D3C  6E01               	movwf	clcd_write@control_bit^0,c
  6408   001D3E  0E01               	movlw	1
  6409   001D40  EC4C  F00A         	call	_clcd_write
  6410   001D44                     l2936:
  6411                           
  6412                           ;main.c: 166:     if (key == 11) {
  6413   001D44  0E0B               	movlw	11
  6414   001D46  1857               	xorwf	_key^0,w,c
  6415   001D48  A4D8               	btfss	status,2,c
  6416   001D4A  EFA9  F00E         	goto	u2121
  6417   001D4E  EFAB  F00E         	goto	u2120
  6418   001D52                     u2121:
  6419   001D52  EFB4  F00E         	goto	l142
  6420   001D56                     u2120:
  6421   001D56                     
  6422                           ;main.c: 167:         state = menu_index + 2 + flag1;
  6423   001D56  5056               	movf	_menu_index^0,w,c
  6424   001D58  2454               	addwf	_flag1^0,w,c
  6425   001D5A  0F02               	addlw	2
  6426   001D5C  6E58               	movwf	_state^0,c
  6427   001D5E                     
  6428                           ;main.c: 168:         clcd_write(0x01, 0);
  6429   001D5E  0E00               	movlw	0
  6430   001D60  6E01               	movwf	clcd_write@control_bit^0,c
  6431   001D62  0E01               	movlw	1
  6432   001D64  EC4C  F00A         	call	_clcd_write
  6433   001D68                     l142:
  6434   001D68  0012               	return		;funcret
  6435   001D6A                     __end_of_display_main_menu:
  6436                           	callstack 0
  6437                           
  6438 ;; *************** function _clcd_putch *****************
  6439 ;; Defined at:
  6440 ;;		line 62 in file "clcd.c"
  6441 ;; Parameters:    Size  Location     Type
  6442 ;;  data            1    wreg     const unsigned char 
  6443 ;;  addr            1    7[COMRAM] unsigned char 
  6444 ;; Auto vars:     Size  Location     Type
  6445 ;;  data            1    8[COMRAM] const unsigned char 
  6446 ;; Return value:  Size  Location     Type
  6447 ;;                  1    wreg      void 
  6448 ;; Registers used:
  6449 ;;		wreg, status,2, cstack
  6450 ;; Tracked objects:
  6451 ;;		On entry : 0/0
  6452 ;;		On exit  : 0/0
  6453 ;;		Unchanged: 0/0
  6454 ;; Data sizes:     COMRAM   BANK0   BANK1   BANK2   BANK3   BANK4   BANK5
  6455 ;;      Params:         1       0       0       0       0       0       0
  6456 ;;      Locals:         1       0       0       0       0       0       0
  6457 ;;      Temps:          0       0       0       0       0       0       0
  6458 ;;      Totals:         2       0       0       0       0       0       0
  6459 ;;Total ram usage:        2 bytes
  6460 ;; Hardware stack levels used: 1
  6461 ;; Hardware stack levels required when called: 1
  6462 ;; This function calls:
  6463 ;;		_clcd_write
  6464 ;; This function is called by:
  6465 ;;		_view_dashboard
  6466 ;;		_display_main_menu
  6467 ;;		_view_log
  6468 ;;		_set_time
  6469 ;; This function uses a non-reentrant model
  6470 ;;
  6471                           
  6472                           	psect	text39
  6473   001348                     __ptext39:
  6474                           	callstack 0
  6475   001348                     _clcd_putch:
  6476                           	callstack 28
  6477                           
  6478                           ;incstack = 0
  6479                           ;clcd_putch@data stored from wreg
  6480   001348  6E09               	movwf	clcd_putch@data^0,c
  6481   00134A                     
  6482                           ;clcd.c: 62: void clcd_putch(const unsigned char data, unsigned char addr);clcd.c: 63: {
      +                          ;clcd.c: 64:  clcd_write(addr, 0);
  6483   00134A  0E00               	movlw	0
  6484   00134C  6E01               	movwf	clcd_write@control_bit^0,c
  6485   00134E  5008               	movf	clcd_putch@addr^0,w,c
  6486   001350  EC4C  F00A         	call	_clcd_write
  6487                           
  6488                           ;clcd.c: 65:  clcd_write(data, 1);
  6489   001354  0E01               	movlw	1
  6490   001356  6E01               	movwf	clcd_write@control_bit^0,c
  6491   001358  5009               	movf	clcd_putch@data^0,w,c
  6492   00135A  EC4C  F00A         	call	_clcd_write
  6493   00135E  0012               	return		;funcret
  6494   001360                     __end_of_clcd_putch:
  6495                           	callstack 0
  6496                           
  6497 ;; *************** function _clear_log *****************
  6498 ;; Defined at:
  6499 ;;		line 217 in file "main.c"
  6500 ;; Parameters:    Size  Location     Type
  6501 ;;		None
  6502 ;; Auto vars:     Size  Location     Type
  6503 ;;		None
  6504 ;; Return value:  Size  Location     Type
  6505 ;;                  1    wreg      void 
  6506 ;; Registers used:
  6507 ;;		wreg, fsr0l, fsr0h, status,2, status,0, tblptrl, tblptrh, tblptru, cstack
  6508 ;; Tracked objects:
  6509 ;;		On entry : 0/0
  6510 ;;		On exit  : 0/0
  6511 ;;		Unchanged: 0/0
  6512 ;; Data sizes:     COMRAM   BANK0   BANK1   BANK2   BANK3   BANK4   BANK5
  6513 ;;      Params:         0       0       0       0       0       0       0
  6514 ;;      Locals:         0       0       0       0       0       0       0
  6515 ;;      Temps:          0       0       0       0       0       0       0
  6516 ;;      Totals:         0       0       0       0       0       0       0
  6517 ;;Total ram usage:        0 bytes
  6518 ;; Hardware stack levels used: 1
  6519 ;; Hardware stack levels required when called: 2
  6520 ;; This function calls:
  6521 ;;		_clcd_print
  6522 ;;		_clcd_write
  6523 ;; This function is called by:
  6524 ;;		_main
  6525 ;; This function uses a non-reentrant model
  6526 ;;
  6527                           
  6528                           	psect	text40
  6529   0016F2                     __ptext40:
  6530                           	callstack 0
  6531   0016F2                     _clear_log:
  6532                           	callstack 28
  6533   0016F2                     
  6534                           ;main.c: 218:     clcd_print("ALL LOGS        ", (0x80 + (0)));
  6535   0016F2  0E39               	movlw	low STR_7
  6536   0016F4  6E03               	movwf	clcd_print@data^0,c
  6537   0016F6  0E2F               	movlw	high STR_7
  6538   0016F8  6E04               	movwf	(clcd_print@data+1)^0,c
  6539   0016FA  0E80               	movlw	128
  6540   0016FC  6E05               	movwf	clcd_print@addr^0,c
  6541   0016FE  EC0D  F00B         	call	_clcd_print	;wreg free
  6542                           
  6543                           ;main.c: 219:     clcd_print("CLEARED :-)     ", (0xC0 + (0)));
  6544   001702  0E5B               	movlw	low STR_8
  6545   001704  6E03               	movwf	clcd_print@data^0,c
  6546   001706  0E2F               	movlw	high STR_8
  6547   001708  6E04               	movwf	(clcd_print@data+1)^0,c
  6548   00170A  0EC0               	movlw	192
  6549   00170C  6E05               	movwf	clcd_print@addr^0,c
  6550   00170E  EC0D  F00B         	call	_clcd_print	;wreg free
  6551   001712                     
  6552                           ;main.c: 220:     if (delay++ == 500) {
  6553   001712  0E01               	movlw	1
  6554   001714  2642               	addwf	_delay^0,f,c
  6555   001716  0E00               	movlw	0
  6556   001718  2243               	addwfc	(_delay+1)^0,f,c
  6557   00171A  2244               	addwfc	(_delay+2)^0,f,c
  6558   00171C  2245               	addwfc	(_delay+3)^0,f,c
  6559   00171E  0EF5               	movlw	245
  6560   001720  1842               	xorwf	_delay^0,w,c
  6561   001722  E108               	bnz	u2261
  6562   001724  0443               	decf	(_delay+1)^0,w,c
  6563   001726  1044               	iorwf	(_delay+2)^0,w,c
  6564   001728  1045               	iorwf	(_delay+3)^0,w,c
  6565   00172A  A4D8               	btfss	status,2,c
  6566   00172C  EF9A  F00B         	goto	u2261
  6567   001730  EF9C  F00B         	goto	u2260
  6568   001734                     u2261:
  6569   001734  EFAF  F00B         	goto	l159
  6570   001738                     u2260:
  6571   001738                     
  6572                           ;main.c: 221:         delay = 0;
  6573   001738  0E00               	movlw	0
  6574   00173A  6E42               	movwf	_delay^0,c
  6575   00173C  0E00               	movlw	0
  6576   00173E  6E43               	movwf	(_delay+1)^0,c
  6577   001740  0E00               	movlw	0
  6578   001742  6E44               	movwf	(_delay+2)^0,c
  6579   001744  0E00               	movlw	0
  6580   001746  6E45               	movwf	(_delay+3)^0,c
  6581                           
  6582                           ;main.c: 222:         address = 0x00;
  6583   001748  0E00               	movlw	0
  6584   00174A  6E53               	movwf	_address^0,c
  6585                           
  6586                           ;main.c: 223:         no_of_events = 0;
  6587   00174C  0E00               	movlw	0
  6588   00174E  6E52               	movwf	_no_of_events^0,c
  6589   001750                     
  6590                           ;main.c: 224:         clcd_write(0x01, 0);
  6591   001750  0E00               	movlw	0
  6592   001752  6E01               	movwf	clcd_write@control_bit^0,c
  6593   001754  0E01               	movlw	1
  6594   001756  EC4C  F00A         	call	_clcd_write
  6595   00175A                     
  6596                           ;main.c: 225:         state = e_main_menu;
  6597   00175A  0E01               	movlw	1
  6598   00175C  6E58               	movwf	_state^0,c
  6599   00175E                     l159:
  6600   00175E  0012               	return		;funcret
  6601   001760                     __end_of_clear_log:
  6602                           	callstack 0
  6603                           
  6604 ;; *************** function _clcd_print *****************
  6605 ;; Defined at:
  6606 ;;		line 53 in file "clcd.c"
  6607 ;; Parameters:    Size  Location     Type
  6608 ;;  data            2    2[COMRAM] PTR const unsigned char 
  6609 ;;		 -> STR_24(3), STR_23(3), STR_22(3), STR_21(17), 
  6610 ;;		 -> STR_20(17), STR_19(17), STR_18(17), STR_17(17), 
  6611 ;;		 -> STR_10(17), STR_9(17), STR_8(17), STR_7(17), 
  6612 ;;		 -> data(160), STR_6(17), STR_5(17), STR_4(17), 
  6613 ;;		 -> STR_3(17), STR_2(17), menu(64), time(9), 
  6614 ;;		 -> gears(30), STR_1(17), 
  6615 ;;  addr            1    4[COMRAM] unsigned char 
  6616 ;; Auto vars:     Size  Location     Type
  6617 ;;		None
  6618 ;; Return value:  Size  Location     Type
  6619 ;;                  1    wreg      void 
  6620 ;; Registers used:
  6621 ;;		wreg, fsr0l, fsr0h, status,2, status,0, tblptrl, tblptrh, tblptru, cstack
  6622 ;; Tracked objects:
  6623 ;;		On entry : 0/0
  6624 ;;		On exit  : 0/0
  6625 ;;		Unchanged: 0/0
  6626 ;; Data sizes:     COMRAM   BANK0   BANK1   BANK2   BANK3   BANK4   BANK5
  6627 ;;      Params:         3       0       0       0       0       0       0
  6628 ;;      Locals:         0       0       0       0       0       0       0
  6629 ;;      Temps:          0       0       0       0       0       0       0
  6630 ;;      Totals:         3       0       0       0       0       0       0
  6631 ;;Total ram usage:        3 bytes
  6632 ;; Hardware stack levels used: 1
  6633 ;; Hardware stack levels required when called: 1
  6634 ;; This function calls:
  6635 ;;		_clcd_write
  6636 ;; This function is called by:
  6637 ;;		_view_dashboard
  6638 ;;		_display_main_menu
  6639 ;;		_view_log
  6640 ;;		_clear_log
  6641 ;;		_download_log
  6642 ;;		_set_time
  6643 ;;		_display_time
  6644 ;; This function uses a non-reentrant model
  6645 ;;
  6646                           
  6647                           	psect	text41
  6648   00161A                     __ptext41:
  6649                           	callstack 0
  6650   00161A                     _clcd_print:
  6651                           	callstack 28
  6652   00161A                     
  6653                           ;clcd.c: 53: void clcd_print(const unsigned char *data, unsigned char addr);clcd.c: 54: 
      +                          {;clcd.c: 55:  clcd_write(addr, 0);
  6654   00161A  0E00               	movlw	0
  6655   00161C  6E01               	movwf	clcd_write@control_bit^0,c
  6656   00161E  5005               	movf	clcd_print@addr^0,w,c
  6657   001620  EC4C  F00A         	call	_clcd_write
  6658                           
  6659                           ;clcd.c: 56:  while (*data != '\0')
  6660   001624  EF2A  F00B         	goto	l2370
  6661   001628                     l2366:
  6662                           
  6663                           ;clcd.c: 57:  {;clcd.c: 58:   clcd_write(*data++, 1);
  6664   001628  0E01               	movlw	1
  6665   00162A  6E01               	movwf	clcd_write@control_bit^0,c
  6666   00162C  C003  FFF6         	movff	clcd_print@data,tblptrl
  6667   001630  C004  FFF7         	movff	clcd_print@data+1,tblptrh
  6668   001634  6AF8               	clrf	tblptru,c
  6669   001636  0E05               	movlw	(high __ramtop+-1)
  6670   001638  64F7               	cpfsgt	tblptrh,c
  6671   00163A  D003               	bra	u1337
  6672   00163C  0008               	tblrd		*
  6673   00163E  50F5               	movf	tablat,w,c
  6674   001640  D005               	bra	u1330
  6675   001642                     u1337:
  6676   001642  CFF6 FFE9          	movff	tblptrl,fsr0l
  6677   001646  CFF7 FFEA          	movff	tblptrh,fsr0h
  6678   00164A  50EF               	movf	indf0,w,c
  6679   00164C                     u1330:
  6680   00164C  EC4C  F00A         	call	_clcd_write
  6681   001650  4A03               	infsnz	clcd_print@data^0,f,c
  6682   001652  2A04               	incf	(clcd_print@data+1)^0,f,c
  6683   001654                     l2370:
  6684                           
  6685                           ;clcd.c: 56:  while (*data != '\0')
  6686   001654  C003  FFF6         	movff	clcd_print@data,tblptrl
  6687   001658  C004  FFF7         	movff	clcd_print@data+1,tblptrh
  6688   00165C  6AF8               	clrf	tblptru,c
  6689   00165E  0E05               	movlw	(high __ramtop+-1)
  6690   001660  64F7               	cpfsgt	tblptrh,c
  6691   001662  D003               	bra	u1347
  6692   001664  0008               	tblrd		*
  6693   001666  50F5               	movf	tablat,w,c
  6694   001668  D005               	bra	u1340
  6695   00166A                     u1347:
  6696   00166A  CFF6 FFE9          	movff	tblptrl,fsr0l
  6697   00166E  CFF7 FFEA          	movff	tblptrh,fsr0h
  6698   001672  50EF               	movf	indf0,w,c
  6699   001674                     u1340:
  6700   001674  0900               	iorlw	0
  6701   001676  A4D8               	btfss	status,2,c
  6702   001678  EF40  F00B         	goto	u1351
  6703   00167C  EF42  F00B         	goto	u1350
  6704   001680                     u1351:
  6705   001680  EF14  F00B         	goto	l2366
  6706   001684                     u1350:
  6707   001684  0012               	return		;funcret
  6708   001686                     __end_of_clcd_print:
  6709                           	callstack 0
  6710                           
  6711 ;; *************** function _clcd_write *****************
  6712 ;; Defined at:
  6713 ;;		line 4 in file "clcd.c"
  6714 ;; Parameters:    Size  Location     Type
  6715 ;;  byte            1    wreg     unsigned char 
  6716 ;;  control_bit     1    0[COMRAM] unsigned char 
  6717 ;; Auto vars:     Size  Location     Type
  6718 ;;  byte            1    1[COMRAM] unsigned char 
  6719 ;; Return value:  Size  Location     Type
  6720 ;;                  1    wreg      void 
  6721 ;; Registers used:
  6722 ;;		wreg
  6723 ;; Tracked objects:
  6724 ;;		On entry : 0/0
  6725 ;;		On exit  : 0/0
  6726 ;;		Unchanged: 0/0
  6727 ;; Data sizes:     COMRAM   BANK0   BANK1   BANK2   BANK3   BANK4   BANK5
  6728 ;;      Params:         1       0       0       0       0       0       0
  6729 ;;      Locals:         1       0       0       0       0       0       0
  6730 ;;      Temps:          0       0       0       0       0       0       0
  6731 ;;      Totals:         2       0       0       0       0       0       0
  6732 ;;Total ram usage:        2 bytes
  6733 ;; Hardware stack levels used: 1
  6734 ;; This function calls:
  6735 ;;		Nothing
  6736 ;; This function is called by:
  6737 ;;		_view_dashboard
  6738 ;;		_display_main_menu
  6739 ;;		_view_log
  6740 ;;		_clear_log
  6741 ;;		_download_log
  6742 ;;		_set_time
  6743 ;;		_init_clcd
  6744 ;;		_clcd_print
  6745 ;;		_clcd_putch
  6746 ;; This function uses a non-reentrant model
  6747 ;;
  6748                           
  6749                           	psect	text42
  6750   001498                     __ptext42:
  6751                           	callstack 0
  6752   001498                     _clcd_write:
  6753                           	callstack 29
  6754                           
  6755                           ;incstack = 0
  6756                           ;clcd_write@byte stored from wreg
  6757   001498  6E02               	movwf	clcd_write@byte^0,c
  6758   00149A                     
  6759                           ;clcd.c: 4: void clcd_write(unsigned char byte, unsigned char control_bit);clcd.c: 5: {;
      +                          clcd.c: 6:  RC1 = control_bit;
  6760   00149A  B001               	btfsc	clcd_write@control_bit^0,0,c
  6761   00149C  EF52  F00A         	goto	u1291
  6762   0014A0  EF55  F00A         	goto	u1290
  6763   0014A4                     u1291:
  6764   0014A4  8282               	bsf	3970,1,c	;volatile
  6765   0014A6  EF56  F00A         	goto	u1305
  6766   0014AA                     u1290:
  6767   0014AA  9282               	bcf	3970,1,c	;volatile
  6768   0014AC                     u1305:
  6769   0014AC                     
  6770                           ;clcd.c: 7:  PORTD = byte;
  6771   0014AC  C002  FF83         	movff	clcd_write@byte,3971	;volatile
  6772   0014B0                     
  6773                           ;clcd.c: 10:  RC2 = 1;
  6774   0014B0  8482               	bsf	3970,2,c	;volatile
  6775   0014B2                     
  6776                           ;clcd.c: 11:  RC2 = 0;
  6777   0014B2  9482               	bcf	3970,2,c	;volatile
  6778   0014B4                     
  6779                           ;clcd.c: 13:  TRISD7 = 0xFF;
  6780   0014B4  8E95               	bsf	3989,7,c	;volatile
  6781   0014B6                     
  6782                           ;clcd.c: 14:  RC0 = 1;
  6783   0014B6  8082               	bsf	3970,0,c	;volatile
  6784   0014B8                     
  6785                           ;clcd.c: 15:  RC1 = 0;
  6786   0014B8  9282               	bcf	3970,1,c	;volatile
  6787   0014BA                     l2326:
  6788                           
  6789                           ;clcd.c: 18:  {;clcd.c: 19:   RC2 = 1;
  6790   0014BA  8482               	bsf	3970,2,c	;volatile
  6791   0014BC                     
  6792                           ;clcd.c: 20:   RC2 = 0;
  6793   0014BC  9482               	bcf	3970,2,c	;volatile
  6794   0014BE                     
  6795                           ;clcd.c: 21:  } while (RD7);
  6796   0014BE  BE83               	btfsc	3971,7,c	;volatile
  6797   0014C0  EF64  F00A         	goto	u1311
  6798   0014C4  EF66  F00A         	goto	u1310
  6799   0014C8                     u1311:
  6800   0014C8  EF5D  F00A         	goto	l2326
  6801   0014CC                     u1310:
  6802   0014CC                     
  6803                           ;clcd.c: 23:  RC0 = 0;
  6804   0014CC  9082               	bcf	3970,0,c	;volatile
  6805                           
  6806                           ;clcd.c: 24:  TRISD7 = 0x00;
  6807   0014CE  9E95               	bcf	3989,7,c	;volatile
  6808   0014D0  0012               	return		;funcret
  6809   0014D2                     __end_of_clcd_write:
  6810                           	callstack 0
  6811                           
  6812                           	psect	rparam
  6813   000000                     
  6814                           	psect	idloc
  6815                           
  6816                           ;Config register IDLOC0 @ 0x200000
  6817                           ;	unspecified, using default values
  6818   200000                     	org	2097152
  6819   200000  FF                 	db	255
  6820                           
  6821                           ;Config register IDLOC1 @ 0x200001
  6822                           ;	unspecified, using default values
  6823   200001                     	org	2097153
  6824   200001  FF                 	db	255
  6825                           
  6826                           ;Config register IDLOC2 @ 0x200002
  6827                           ;	unspecified, using default values
  6828   200002                     	org	2097154
  6829   200002  FF                 	db	255
  6830                           
  6831                           ;Config register IDLOC3 @ 0x200003
  6832                           ;	unspecified, using default values
  6833   200003                     	org	2097155
  6834   200003  FF                 	db	255
  6835                           
  6836                           ;Config register IDLOC4 @ 0x200004
  6837                           ;	unspecified, using default values
  6838   200004                     	org	2097156
  6839   200004  FF                 	db	255
  6840                           
  6841                           ;Config register IDLOC5 @ 0x200005
  6842                           ;	unspecified, using default values
  6843   200005                     	org	2097157
  6844   200005  FF                 	db	255
  6845                           
  6846                           ;Config register IDLOC6 @ 0x200006
  6847                           ;	unspecified, using default values
  6848   200006                     	org	2097158
  6849   200006  FF                 	db	255
  6850                           
  6851                           ;Config register IDLOC7 @ 0x200007
  6852                           ;	unspecified, using default values
  6853   200007                     	org	2097159
  6854   200007  FF                 	db	255
  6855                           
  6856                           	psect	config
  6857                           
  6858                           ; Padding undefined space
  6859   300000                     	org	3145728
  6860   300000  FF                 	db	255
  6861                           
  6862                           ;Config register CONFIG1H @ 0x300001
  6863                           ;	unspecified, using default values
  6864                           ;	Oscillator Selection bits
  6865                           ;	OSC = 0x7, unprogrammed default
  6866                           ;	Fail-Safe Clock Monitor Enable bit
  6867                           ;	FCMEN = 0x0, unprogrammed default
  6868                           ;	Internal/External Oscillator Switchover bit
  6869                           ;	IESO = 0x0, unprogrammed default
  6870   300001                     	org	3145729
  6871   300001  07                 	db	7
  6872                           
  6873                           ;Config register CONFIG2L @ 0x300002
  6874                           ;	unspecified, using default values
  6875                           ;	Power-up Timer Enable bit
  6876                           ;	PWRT = 0x1, unprogrammed default
  6877                           ;	Brown-out Reset Enable bits
  6878                           ;	BOREN = 0x3, unprogrammed default
  6879                           ;	Brown-out Reset Voltage bits
  6880                           ;	BORV = 0x3, unprogrammed default
  6881   300002                     	org	3145730
  6882   300002  1F                 	db	31
  6883                           
  6884                           ;Config register CONFIG2H @ 0x300003
  6885                           ;	unspecified, using default values
  6886                           ;	Watchdog Timer Enable bit
  6887                           ;	WDT = 0x1, unprogrammed default
  6888                           ;	Watchdog Timer Postscale Select bits
  6889                           ;	WDTPS = 0xF, unprogrammed default
  6890   300003                     	org	3145731
  6891   300003  1F                 	db	31
  6892                           
  6893                           ; Padding undefined space
  6894   300004                     	org	3145732
  6895   300004  FF                 	db	255
  6896                           
  6897                           ;Config register CONFIG3H @ 0x300005
  6898                           ;	unspecified, using default values
  6899                           ;	PORTB A/D Enable bit
  6900                           ;	PBADEN = 0x1, unprogrammed default
  6901                           ;	Low-Power Timer 1 Oscillator Enable bit
  6902                           ;	LPT1OSC = 0x0, unprogrammed default
  6903                           ;	MCLR Pin Enable bit
  6904                           ;	MCLRE = 0x1, unprogrammed default
  6905   300005                     	org	3145733
  6906   300005  82                 	db	130
  6907                           
  6908                           ;Config register CONFIG4L @ 0x300006
  6909                           ;	unspecified, using default values
  6910                           ;	Stack Full/Underflow Reset Enable bit
  6911                           ;	STVREN = 0x1, unprogrammed default
  6912                           ;	Single-Supply ICSP Enable bit
  6913                           ;	LVP = 0x1, unprogrammed default
  6914                           ;	Boot Block Size Select bit
  6915                           ;	BBSIZ = 0x0, unprogrammed default
  6916                           ;	Extended Instruction Set Enable bit
  6917                           ;	XINST = 0x0, unprogrammed default
  6918                           ;	Background Debugger Enable bit
  6919                           ;	DEBUG = 0x1, unprogrammed default
  6920   300006                     	org	3145734
  6921   300006  85                 	db	133
  6922                           
  6923                           ; Padding undefined space
  6924   300007                     	org	3145735
  6925   300007  FF                 	db	255
  6926                           
  6927                           ;Config register CONFIG5L @ 0x300008
  6928                           ;	unspecified, using default values
  6929                           ;	Code Protection bit
  6930                           ;	CP0 = 0x1, unprogrammed default
  6931                           ;	Code Protection bit
  6932                           ;	CP1 = 0x1, unprogrammed default
  6933                           ;	Code Protection bit
  6934                           ;	CP2 = 0x1, unprogrammed default
  6935                           ;	Code Protection bit
  6936                           ;	CP3 = 0x1, unprogrammed default
  6937   300008                     	org	3145736
  6938   300008  0F                 	db	15
  6939                           
  6940                           ;Config register CONFIG5H @ 0x300009
  6941                           ;	unspecified, using default values
  6942                           ;	Boot Block Code Protection bit
  6943                           ;	CPB = 0x1, unprogrammed default
  6944                           ;	Data EEPROM Code Protection bit
  6945                           ;	CPD = 0x1, unprogrammed default
  6946   300009                     	org	3145737
  6947   300009  C0                 	db	192
  6948                           
  6949                           ;Config register CONFIG6L @ 0x30000A
  6950                           ;	unspecified, using default values
  6951                           ;	Write Protection bit
  6952                           ;	WRT0 = 0x1, unprogrammed default
  6953                           ;	Write Protection bit
  6954                           ;	WRT1 = 0x1, unprogrammed default
  6955                           ;	Write Protection bit
  6956                           ;	WRT2 = 0x1, unprogrammed default
  6957                           ;	Write Protection bit
  6958                           ;	WRT3 = 0x1, unprogrammed default
  6959   30000A                     	org	3145738
  6960   30000A  0F                 	db	15
  6961                           
  6962                           ;Config register CONFIG6H @ 0x30000B
  6963                           ;	unspecified, using default values
  6964                           ;	Configuration Register Write Protection bit
  6965                           ;	WRTC = 0x1, unprogrammed default
  6966                           ;	Boot Block Write Protection bit
  6967                           ;	WRTB = 0x1, unprogrammed default
  6968                           ;	Data EEPROM Write Protection bit
  6969                           ;	WRTD = 0x1, unprogrammed default
  6970   30000B                     	org	3145739
  6971   30000B  E0                 	db	224
  6972                           
  6973                           ;Config register CONFIG7L @ 0x30000C
  6974                           ;	unspecified, using default values
  6975                           ;	Table Read Protection bit
  6976                           ;	EBTR0 = 0x1, unprogrammed default
  6977                           ;	Table Read Protection bit
  6978                           ;	EBTR1 = 0x1, unprogrammed default
  6979                           ;	Table Read Protection bit
  6980                           ;	EBTR2 = 0x1, unprogrammed default
  6981                           ;	Table Read Protection bit
  6982                           ;	EBTR3 = 0x1, unprogrammed default
  6983   30000C                     	org	3145740
  6984   30000C  0F                 	db	15
  6985                           
  6986                           ;Config register CONFIG7H @ 0x30000D
  6987                           ;	unspecified, using default values
  6988                           ;	Boot Block Table Read Protection bit
  6989                           ;	EBTRB = 0x1, unprogrammed default
  6990   30000D                     	org	3145741
  6991   30000D  40                 	db	64
  6992                           tosu	equ	0xFFF
  6993                           tosh	equ	0xFFE
  6994                           tosl	equ	0xFFD
  6995                           stkptr	equ	0xFFC
  6996                           pclatu	equ	0xFFB
  6997                           pclath	equ	0xFFA
  6998                           pcl	equ	0xFF9
  6999                           tblptru	equ	0xFF8
  7000                           tblptrh	equ	0xFF7
  7001                           tblptrl	equ	0xFF6
  7002                           tablat	equ	0xFF5
  7003                           prodh	equ	0xFF4
  7004                           prodl	equ	0xFF3
  7005                           indf0	equ	0xFEF
  7006                           postinc0	equ	0xFEE
  7007                           postdec0	equ	0xFED
  7008                           preinc0	equ	0xFEC
  7009                           plusw0	equ	0xFEB
  7010                           fsr0h	equ	0xFEA
  7011                           fsr0l	equ	0xFE9
  7012                           wreg	equ	0xFE8
  7013                           indf1	equ	0xFE7
  7014                           postinc1	equ	0xFE6
  7015                           postdec1	equ	0xFE5
  7016                           preinc1	equ	0xFE4
  7017                           plusw1	equ	0xFE3
  7018                           fsr1h	equ	0xFE2
  7019                           fsr1l	equ	0xFE1
  7020                           bsr	equ	0xFE0
  7021                           indf2	equ	0xFDF
  7022                           postinc2	equ	0xFDE
  7023                           postdec2	equ	0xFDD
  7024                           preinc2	equ	0xFDC
  7025                           plusw2	equ	0xFDB
  7026                           fsr2h	equ	0xFDA
  7027                           fsr2l	equ	0xFD9
  7028                           status	equ	0xFD8

Data Sizes:
    Strings     285
    Constant    0
    Data        97
    BSS         198
    Persistent  0
    Stack       0

Auto Spaces:
    Space          Size  Autos    Used
    COMRAM           95     59      91
    BANK0           160      0     103
    BANK1           256      0     160
    BANK2           256      0       0
    BANK3           256      0       0
    BANK4           256      0       0
    BANK5           256      0       0

Pointer List with Targets:

    clcd_print@data	PTR const unsigned char  size(2) Largest target is 160
		 -> data(BANK1[160]), gears(BANK0[30]), menu(BANK0[64]), STR_1(CODE[17]), 
		 -> STR_10(CODE[17]), STR_17(CODE[17]), STR_18(CODE[17]), STR_19(CODE[17]), 
		 -> STR_2(CODE[17]), STR_20(CODE[17]), STR_21(CODE[17]), STR_22(CODE[3]), 
		 -> STR_23(CODE[3]), STR_24(CODE[3]), STR_3(CODE[17]), STR_4(CODE[17]), 
		 -> STR_5(CODE[17]), STR_6(CODE[17]), STR_7(CODE[17]), STR_8(CODE[17]), 
		 -> STR_9(CODE[17]), time(BANK0[9]), 

    event_store@gear	PTR unsigned char  size(1) Largest target is 30
		 -> gears(BANK0[30]), 

    event_store@time	PTR unsigned char  size(1) Largest target is 9
		 -> time(BANK0[9]), 

    puts@s	PTR const unsigned char  size(2) Largest target is 36
		 -> STR_11(CODE[18]), STR_12(CODE[7]), STR_13(CODE[36]), STR_14(CODE[4]), 
		 -> STR_15(CODE[7]), STR_16(CODE[13]), 


Critical Paths under _main in COMRAM

    _main->_view_dashboard
    _view_log->_event_reader
    _event_reader->_read_external_EEPROM
    _view_dashboard->___fltol
    _event_store->_write_external_EEPROM
    _write_external_EEPROM->___lwdiv
    _display_time->_clcd_print
    ___xxtofl->_read_adc
    ___fltol->___fldiv
    ___fldiv->___xxtofl
    _set_time->_clcd_putch
    _get_time->_read_ds1307
    _init_config->_init_ds1307
    _init_ds1307->_read_ds1307
    _init_ds1307->_write_ds1307
    _write_ds1307->_i2c_write
    _read_ds1307->_i2c_write
    _init_clcd->_clcd_write
    _download_log->_clcd_print
    _read_external_EEPROM->_i2c_write
    _puts->_putch
    _display_main_menu->_clcd_putch
    _clcd_putch->___lwdiv
    _clear_log->_clcd_print
    _clcd_print->_clcd_write

Critical Paths under _main in BANK0

    None.

Critical Paths under _main in BANK1

    None.

Critical Paths under _main in BANK2

    None.

Critical Paths under _main in BANK3

    None.

Critical Paths under _main in BANK4

    None.

Critical Paths under _main in BANK5

    None.

Call Graph Tables:

 ---------------------------------------------------------------------------------
 (Depth) Function   	        Calls       Base Space   Used Autos Params    Refs
 ---------------------------------------------------------------------------------
 (0) _main                                                 2     2      0   77085
                                             57 COMRAM     2     2      0
                          _clear_log
                  _display_main_menu
                       _download_log
                           _get_time
                        _init_config
                      _read_switches
                           _set_time
                     _view_dashboard
                           _view_log
 ---------------------------------------------------------------------------------
 (1) _view_log                                             7     7      0   10799
                                             12 COMRAM     7     7      0
                         _clcd_print
                         _clcd_putch
                         _clcd_write
                       _event_reader
 ---------------------------------------------------------------------------------
 (2) _event_reader                                         9     9      0     425
                                              3 COMRAM     9     9      0
               _read_external_EEPROM
 ---------------------------------------------------------------------------------
 (1) _view_dashboard                                       1     1      0   24069
                                             56 COMRAM     1     1      0
                            ___fldiv
                            ___fltol
                            ___lwdiv
                            ___lwmod
                           ___xxtofl
                         _clcd_print
                         _clcd_putch
                         _clcd_write
                       _display_time
                        _event_store
                           _read_adc
 ---------------------------------------------------------------------------------
 (2) _read_adc                                             7     5      2      45
                                              0 COMRAM     7     5      2
 ---------------------------------------------------------------------------------
 (2) _event_store                                         13     9      4    3168
                                             11 COMRAM    13     9      4
                            ___lwdiv
               _read_external_EEPROM
              _write_external_EEPROM
 ---------------------------------------------------------------------------------
 (3) _write_external_EEPROM                                4     3      1     545
                                              7 COMRAM     4     3      1
                            ___lwdiv (ARG)
                          _i2c_start
                           _i2c_stop
                          _i2c_write
 ---------------------------------------------------------------------------------
 (2) _display_time                                         0     0      0    5498
                         _clcd_print
                           _get_time
 ---------------------------------------------------------------------------------
 (2) ___xxtofl                                            14    10      4     398
                                              7 COMRAM    14    10      4
                           _read_adc (ARG)
 ---------------------------------------------------------------------------------
 (2) ___fltol                                             10     6      4     305
                                             46 COMRAM    10     6      4
                            ___fldiv (ARG)
                           ___xxtofl (ARG)
                           _read_adc (ARG)
 ---------------------------------------------------------------------------------
 (2) ___fldiv                                             25    17      8    1399
                                             21 COMRAM    25    17      8
                           ___xxtofl (ARG)
                           _read_adc (ARG)
 ---------------------------------------------------------------------------------
 (1) _set_time                                             7     7      0   13785
                                              9 COMRAM     7     7      0
                            ___lwdiv
                            ___lwmod
                         _clcd_print
                         _clcd_putch
                         _clcd_write
                           _get_time
                       _write_ds1307
 ---------------------------------------------------------------------------------
 (3) _get_time                                             0     0      0      67
                        _read_ds1307
 ---------------------------------------------------------------------------------
 (2) ___lwmod                                              5     1      4    1375
                                              0 COMRAM     5     1      4
 ---------------------------------------------------------------------------------
 (3) ___lwdiv                                              7     3      4    1530
                                              0 COMRAM     7     3      4
 ---------------------------------------------------------------------------------
 (1) _read_switches                                        1     1      0      30
                                              0 COMRAM     1     1      0
                           _scan_key
 ---------------------------------------------------------------------------------
 (2) _scan_key                                             0     0      0       0
 ---------------------------------------------------------------------------------
 (1) _init_config                                          0     0      0    2351
                           _init_adc
                          _init_clcd
                        _init_ds1307
                           _init_i2c
                 _init_matrix_keypad
                          _init_uart
 ---------------------------------------------------------------------------------
 (2) _init_uart                                            0     0      0       0
 ---------------------------------------------------------------------------------
 (2) _init_matrix_keypad                                   0     0      0       0
 ---------------------------------------------------------------------------------
 (2) _init_i2c                                             0     0      0       0
 ---------------------------------------------------------------------------------
 (2) _init_ds1307                                          1     1      0     483
                                              3 COMRAM     1     1      0
                        _read_ds1307
                       _write_ds1307
 ---------------------------------------------------------------------------------
 (2) _write_ds1307                                         2     1      1     370
                                              1 COMRAM     2     1      1
                          _i2c_start
                           _i2c_stop
                          _i2c_write
 ---------------------------------------------------------------------------------
 (4) _read_ds1307                                          2     2      0      67
                                              1 COMRAM     2     2      0
                           _i2c_read
                      _i2c_rep_start
                          _i2c_start
                           _i2c_stop
                          _i2c_write
 ---------------------------------------------------------------------------------
 (2) _init_clcd                                            1     1      0    1868
                                              2 COMRAM     1     1      0
                         _clcd_write
 ---------------------------------------------------------------------------------
 (2) _init_adc                                             0     0      0       0
 ---------------------------------------------------------------------------------
 (1) _download_log                                        27    27      0    8334
                                              5 COMRAM    27    27      0
                         _clcd_print
                         _clcd_write
                              _putch
                               _puts
               _read_external_EEPROM
 ---------------------------------------------------------------------------------
 (3) _read_external_EEPROM                                 2     2      0      67
                                              1 COMRAM     2     2      0
                           _i2c_read
                      _i2c_rep_start
                          _i2c_start
                           _i2c_stop
                          _i2c_write
 ---------------------------------------------------------------------------------
 (4) _i2c_write                                            1     1      0      22
                                              0 COMRAM     1     1      0
                           _i2c_idle
 ---------------------------------------------------------------------------------
 (4) _i2c_stop                                             0     0      0       0
                           _i2c_idle
 ---------------------------------------------------------------------------------
 (4) _i2c_start                                            0     0      0       0
                           _i2c_idle
 ---------------------------------------------------------------------------------
 (4) _i2c_rep_start                                        0     0      0       0
                           _i2c_idle
 ---------------------------------------------------------------------------------
 (4) _i2c_read                                             0     0      0       0
                         _i2c_no_ack
                        _i2c_rx_mode
 ---------------------------------------------------------------------------------
 (5) _i2c_rx_mode                                          0     0      0       0
                           _i2c_idle
 ---------------------------------------------------------------------------------
 (5) _i2c_idle                                             0     0      0       0
 ---------------------------------------------------------------------------------
 (5) _i2c_no_ack                                           0     0      0       0
 ---------------------------------------------------------------------------------
 (2) _puts                                                 2     0      2     516
                                              1 COMRAM     2     0      2
                              _putch
 ---------------------------------------------------------------------------------
 (3) _putch                                                1     1      0      15
                                              0 COMRAM     1     1      0
 ---------------------------------------------------------------------------------
 (1) _display_main_menu                                    1     1      0   10351
                                              9 COMRAM     1     1      0
                         _clcd_print
                         _clcd_putch
                         _clcd_write
 ---------------------------------------------------------------------------------
 (2) _clcd_putch                                           2     1      1    3052
                                              7 COMRAM     2     1      1
                            ___lwdiv (ARG)
                            ___lwmod (ARG)
                         _clcd_write
 ---------------------------------------------------------------------------------
 (1) _clear_log                                            0     0      0    7299
                         _clcd_print
                         _clcd_write
 ---------------------------------------------------------------------------------
 (2) _clcd_print                                           3     0      3    5431
                                              2 COMRAM     3     0      3
                         _clcd_write
 ---------------------------------------------------------------------------------
 (2) _clcd_write                                           2     1      1    1868
                                              0 COMRAM     2     1      1
 ---------------------------------------------------------------------------------
 Estimated maximum stack depth 5
 ---------------------------------------------------------------------------------

 Call Graph Graphs:

 _main (ROOT)
   _clear_log
     _clcd_print
       _clcd_write
     _clcd_write
   _display_main_menu
     _clcd_print
     _clcd_putch
       ___lwdiv (ARG)
       ___lwmod (ARG)
       _clcd_write (ARG)
     _clcd_write
   _download_log
     _clcd_print
     _clcd_write
     _putch
     _puts
       _putch
     _read_external_EEPROM
       _i2c_read
         _i2c_no_ack
         _i2c_rx_mode
           _i2c_idle
       _i2c_rep_start
         _i2c_idle
       _i2c_start
         _i2c_idle
       _i2c_stop
         _i2c_idle
       _i2c_write
         _i2c_idle
   _get_time
     _read_ds1307
       _i2c_read
       _i2c_rep_start
       _i2c_start
       _i2c_stop
       _i2c_write
   _init_config
     _init_adc
     _init_clcd
       _clcd_write
     _init_ds1307
       _read_ds1307
       _write_ds1307
         _i2c_start
         _i2c_stop
         _i2c_write
     _init_i2c
     _init_matrix_keypad
     _init_uart
   _read_switches
     _scan_key
   _set_time
     ___lwdiv
     ___lwmod
     _clcd_print
     _clcd_putch
     _clcd_write
     _get_time
     _write_ds1307
   _view_dashboard
     ___fldiv
       ___xxtofl (ARG)
         _read_adc (ARG)
       _read_adc (ARG)
     ___fltol
       ___fldiv (ARG)
       ___xxtofl (ARG)
       _read_adc (ARG)
     ___lwdiv
     ___lwmod
     ___xxtofl
     _clcd_print
     _clcd_putch
     _clcd_write
     _display_time
       _clcd_print
       _get_time
     _event_store
       ___lwdiv
       _read_external_EEPROM
       _write_external_EEPROM
         ___lwdiv (ARG)
         _i2c_start (ARG)
         _i2c_stop (ARG)
         _i2c_write (ARG)
     _read_adc
   _view_log
     _clcd_print
     _clcd_putch
     _clcd_write
     _event_reader
       _read_external_EEPROM

 Address spaces:
Name               Size   Autos  Total    Cost      Usage
BIGRAM             5FF      0       0      26        0.0%
BITBIGSFRl         281      0       0      24        0.0%
EEDATA             100      0       0       0        0.0%
BITBANK5           100      0       0      14        0.0%
BANK5              100      0       0      15        0.0%
BITBANK4           100      0       0      12        0.0%
BANK4              100      0       0      13        0.0%
BITBANK3           100      0       0      10        0.0%
BANK3              100      0       0      11        0.0%
BITBANK2           100      0       0       8        0.0%
BANK2              100      0       0       9        0.0%
BITBANK1           100      0       0       6        0.0%
BANK1              100      0      A0       7       62.5%
BITBANK0            A0      0       0       4        0.0%
BANK0               A0      0      67       5       64.4%
BITCOMRAM           5F      0       0       0        0.0%
COMRAM              5F     3B      5B       1       95.8%
BITBIGSFRhhhlhh     27      0       0      17        0.0%
BITBIGSFRhl          F      0       0      23        0.0%
BITBIGSFRhhhh        E      0       0      16        0.0%
BITBIGSFRhhllhh      9      0       0      20        0.0%
BITBIGSFRhhlhlh      8      0       0      19        0.0%
BITBIGSFRhhlll       8      0       0      22        0.0%
BITBIGSFRhhlhh       7      0       0      18        0.0%
BITBIGSFRhhllhl      2      0       0      21        0.0%
BIGSFR               0      0       0     200        0.0%
BITSFR_3             0      0       0     200        0.0%
SFR_3                0      0       0     200        0.0%
BITSFR_2             0      0       0     200        0.0%
SFR_2                0      0       0     200        0.0%
BITSFR_1             0      0       0     200        0.0%
SFR_1                0      0       0     200        0.0%
BITSFR               0      0       0     200        0.0%
SFR                  0      0       0     200        0.0%
STACK                0      0       0       2        0.0%
NULL                 0      0       0       0        0.0%
ABS                  0      0     162      25        0.0%
DATA                 0      0     162       3        0.0%
CODE                 0      0       0       0        0.0%


Microchip Technology PIC18 Macro Assembler V2.46 build 20240104201356 
Symbol Table                                                                                   Thu Feb 27 21:29:48 2025

                 ___fldiv@aexp 002E                   ___fldiv@bexp 002D                   ___fldiv@sign 0026  
               clcd_print@addr 0005                 clcd_print@data 0003                             l94 18D2  
                           l89 13CC                             _GO 7E11          ?_read_external_EEPROM 0001  
           _init_matrix_keypad 130C                            l115 204A                            l300 1BEA  
                          l301 1C12                            l142 1D68                            l302 1BFE  
                          l126 1ECA                            l118 1DF2                            l224 2EDE  
                          l232 1330                            l313 1848                            l403 1496  
                          l501 12EC                            l229 18CC                            l149 237C  
                          l254 14CC                            l350 13EC                            l255 14D0  
                          l159 175E                            l191 273A                            l175 21D2  
                          l264 1684                            l520 1436                            l432 13AE  
                          l280 131C                            l353 152A                            l258 1A06  
                          l267 135E                            l435 1460                            l291 1B7E  
                          l283 1B28                            l292 1BBA                            l284 1C14  
                          l356 1556                            l429 1390                            l293 1B92  
                          l285 1B64                            l517 1510                            l470 1346  
                          l286 1B3C                            l391 140C                            l295 1BA6  
                          l288 1B50                            l473 12FA                            l394 1362  
                          l298 1BD6                            l475 1308                            l483 12D8  
                          l396 1370                            l476 130A                            l492 12F8  
                          l820 1B0C                            l397 1376                            l486 12E0  
                          l495 12C8                            l489 12D0                            l498 12C0  
                          _CKE 7E3E                            _RC0 7C10                            _RC1 7C11  
                          _RC2 7C12                            u100 1370                            u101 136C  
                          _RD7 7C1F                            u300 1B4A                            u301 1B46  
                          u310 1B5E                            u311 1B5A                            u320 1B78  
                          u321 1B74                            u330 1B8C                            u331 1B88  
                          u340 1BA0                            u341 1B9C                            u350 1BB4  
                          u351 1BB0                            u360 1BD0                            u280 1B22  
                          _PEN 7E2A                            u361 1BCC                            u281 1B1E  
                          u370 1BE4                            u290 1B36                            u371 1BE0  
                          u291 1B32                            u380 1BF8                            u381 1BF4  
                          u390 1C0C                            u391 1C08                            _SEN 7E28  
                          u830 17E6                            u831 17E2                            u840 17FC  
                          u841 17F8                            u850 180C                            u851 1808  
                          u860 1826                            u861 1822                            u870 183E  
                          u871 183A                            _RX9 7D5E                            _SMP 7E3F  
                          _TX9 7D66                  ?_display_time 0001                            _key 0057  
               clcd_putch@addr 0008                 clcd_putch@data 0009                            wreg 0FE8  
    write_external_EEPROM@data 0008            ?_init_matrix_keypad 0001                   ___fltol@exp1 0038  
              ?_view_dashboard 0001                           l1021 17D2                           l1014 17CA  
                         l1110 28F8                           l1031 1618                           l1024 1610  
                         l1105 2AD4                           l1107 2934                           l1116 297A  
                         l1118 29F2                           l1119 29E0                           l3000 2532  
                         l1400 1404                           l1314 1362                           l3010 2586  
                         l3002 254E                           l1410 133E                           l1402 1408  
                         l1316 1372                           l2300 12DC                           l3020 25E4  
                         l3012 2596                           l3004 256E                           l1412 1340  
                         l1404 140A                           l3100 2AE6                           l1181 2530  
                         l2302 12CA                           l3030 25FC                           l3022 25EA  
                         l3006 257A                           l3014 25C0                           l1414 1342  
                         l1406 1332                           l3102 2AEA                           l3110 2B50  
                         l2320 14B4                           l2312 149A                           l2304 12CC  
                         l3040 2636                           l3032 260C                           l3024 25F4  
                         l3016 25CC                           l3008 2580                           l2400 1394  
                         l1416 1344                           l1408 1336                           l3120 2BE2  
                         l3112 2B64                           l3104 2AEE                           l1192 24C8  
                         l3200 18F2                           l1185 246C                           l2330 14BE  
                         l2322 14B6                           l2314 14AC                           l2306 12E2  
                         l3050 265A                           l3042 2642                           l3034 260E  
                         l3018 25D2                           l2402 1398                           l1602 1BF8  
                         l2410 1760                           l3130 2C76                           l3122 2BEC  
                         l3114 2B7A                           l3106 2B10                           l1178 23D4  
                         l3202 18FA                           l3210 1912                           l2324 14B8  
                         l2316 14B0                           l2308 12EA                           l3060 267E  
                         l3052 2660                           l3044 2648                           l3036 2612  
                         l2340 144E                           l2332 143A                           l2404 139E  
                         l1612 1C12                           l2420 1798                           l2412 1768  
                         l3140 2CE0                           l3132 2C80                           l3124 2C24  
                         l3116 2B9E                           l3108 2B30                           l2500 1DAC  
                         l3204 1902                           l2326 14BA                           l2318 14B2  
                         l3070 26A2                           l3062 2684                           l3054 2666  
                         l3046 264E                           l3038 262E                           l2342 145A  
                         l2334 143E                           l2406 13A4                           l1390 1316  
                         l2430 17C4                           l2422 179E                           l2414 177A  
                         l2350 1870                           l3142 2CEA                           l3134 2C8A  
                         l3126 2C36                           l3118 2BDA                           l3150 2D00  
                         l2510 1DEE                           l2502 1DAE                           l3206 190A  
                         l2328 14BC                           l3080 26F6                           l3072 26A8  
                         l3064 268A                           l3056 266C                           l3048 2654  
                         l1392 13CE                           l2440 197C                           l2432 1960  
                         l2336 1444                           l2408 13AA                           l1608 1C0C  
                         l1552 1B36                           l1544 1B0E                           l2424 17B4  
                         l2416 1782                           l2360 18B2                           l2352 1888  
                         l3160 2D62                           l3144 2CF2                           l3136 2C9A  
                         l3128 2C6E                           l3152 2D26                           l2600 2758  
                         l2520 1E22                           l2504 1DB2                           l2370 1654  
                         l3090 1712                           l2282 12FA                           l2290 12D2  
                         l3082 2706                           l3074 26AE                           l3066 2696  
                         l3058 2672                           l1394 13E2                           l2450 19B2  
                         l2442 1986                           l2434 1964                           l2338 144A  
                         l1386 130C                           l1546 1B22                           l2426 17BC  
                         l2418 178A                           l2362 18C8                           l2354 189C  
                         l2346 184A                           l3170 2DDA                           l3162 2D78  
                         l3154 2D3C                           l3138 2CBA                           l2602 2768  
                         l2610 2792                           l2530 1E6C                           l2522 1E34  
                         l2506 1DCE                           l2364 161A                           l3092 1738  
                         l2284 12C2                           l2292 12D4                           l2380 1424  
                         l2372 1410                           l3068 269C                           l3076 26B2  
                         l3084 272C                           l1396 13EA                           l2460 19DC  
                         l2452 19B8                           l2444 1996                           l2436 196A  
                         l1388 1314                           l1580 1BA0                           l1564 1B5E  
                         l2428 17BE                           l2356 18A0                           l2348 1862  
                         l3180 2E7C                           l3172 2DFA                           l3164 2D80  
                         l3156 2D44                           l2700 2A02                           l2620 27BE  
                         l2612 27A2                           l2604 2778                           l2532 1E6E  
                         l2524 1E36                           l2516 1DFA                           l2508 1DD2  
                         l2540 1514                           l3236 1926                           l2366 1628  
                         l3094 1750                           l2550 134A                           l2286 12C4  
                         l2294 12F0                           l2382 1430                           l2374 1414  
                         l3086 2730                           l3078 26D6                           l2462 19E6  
                         l2454 19C2                           l2446 19A0                           l2438 196C  
                         l2470 1380                           l1398 13EE                           l1590 1BD0  
                         l1574 1B8C                           l1558 1B4A                           l2358 18AA  
                         l3182 2E90                           l3174 2E1A                           l3166 2D90  
                         l3158 2D5A                           l2710 2A64                           l2702 2A0E  
                         l2622 27CE                           l2630 27F8                           l2614 27A8  
                         l2606 2788                           l2390 14DE                           l2534 1E86  
                         l2526 1E3A                           l2518 1E0E                           l2542 1528  
                         l2368 1650                           l3096 175A                           l3088 16F2  
                         l2288 12BC                           l2296 12F4                           l2376 141A  
                         l2464 19F4                           l2456 19CA                           l2448 19A8  
                         l2472 1386                           l1568 1B78                           l3184 2EA2  
                         l3176 2E64                           l3168 2DD0                           l2720 2AC2  
                         l2712 2A7A                           l2704 2A1C                           l2640 283A  
                         l2632 2808                           l2624 27DE                           l2616 27AE  
                         l2608 278A                           l2800 23FA                           l2392 14E4  
                         l2536 1EA6                           l2528 1E56                           l2480 1D6C  
                         l2544 1538                           l2560 2064                           l2552 204C  
                         l2298 12DA                           l2378 1420                           l2466 19FE  
                         l2458 19D4                           l1586 1BB4                           l3186 2EB6  
                         l3178 2E6A                           l3098 2AD6                           l2722 2AC8  
                         l2714 2A94                           l2706 2A46                           l2634 281E  
                         l2626 27EE                           l2618 27BC                           l2810 2454  
                         l2474 131E                           l2394 14EA                           l2386 14D4  
                         l2538 1EC8                           l2482 1D7C                           l2546 154E  
                         l2570 20EE                           l2562 2078                           l2554 205C  
                         l3194 18CE                           l2900 1C7A                           l2468 1378  
                         l1596 1BE4                           l3188 2ECA                           l2724 2ACA  
                         l2716 2AB0                           l2708 2A4A                           l2660 28BC  
                         l2652 2872                           l2636 282E                           l2644 284E  
                         l2628 27F0                           l2740 1A5C                           l2732 1A08  
                         l2820 24B8                           l2812 2456                           l2804 240E  
                         l2476 1322                           l2396 14EE                           l2388 14D8  
                         l2580 217E                           l2572 2128                           l2564 208C  
                         l3196 18E2                           l2910 1CCC                           l2902 1C92  
                         l2590 1476                           l2718 2AB4                           l2670 2902  
                         l2662 28C4                           l2654 288C                           l2646 285E  
                         l2638 2836                           l2742 1A5E                           l2734 1A1E  
                         l2830 2510                           l2822 24D6                           l2814 2462  
                         l2806 2416                           l2398 14F6                           l2494 1D98  
                         l2478 1D6A                           l2582 21B2                           l2574 2162  
                         l2566 20C6                           l3198 18EA                           l2920 1CFC  
                         l2912 1CD6                           l2904 1CA4                           l2592 147A  
                         l2840 13B8                           l1880 180C                           l1872 17D6  
                         l2680 295A                           l2672 2920                           l2664 28D4  
                         l2656 289C                           l2648 285E                           l2744 1A6E  
                         l2832 251E                           l2824 24D8                           l2816 249E  
                         l2808 2422                           l2496 1DA0                           l2488 1D90  
                         l2568 20DA                           l2576 2164                           l2584 21B6  
                         l2922 1D04                           l2930 1D24                           l2914 1CD8  
                         l2906 1CB4                           l2586 1462                           l2842 13BC  
                         l1874 17E6                           l1890 182E                           l2690 2998  
                         l2682 2960                           l2674 2922                           l2666 28E8  
                         l2658 28AC                           l2594 273C                           l2770 1AEC  
                         l2754 1A98                           l2746 1A72                           l2738 1A32  
                         l2834 2520                           l2826 24DC                           l2818 24AA  
                         l2498 1DA2                           l2850 1ECC                           l2578 2168  
                         l2940 1D5E                           l2932 1D36                           l2924 1D14  
                         l2908 1CBC                           l2916 1CDC                           l2588 1466  
                         l2844 13C0                           l1892 183E                           l1876 17EC  
                         l2780 15D0                           l2692 299C                           l2684 296A  
                         l2676 2932                           l2668 28F6                           l2596 2748  
                         l2772 1AFC                           l2764 1AC0                           l2756 1AA2  
                         l2748 1A80                           l2828 2500                           l2860 1F28  
                         l2852 1EE0                           l2934 1D3A                           l2926 1D16  
                         l2918 1CEC                           l2846 13C4                           l2838 13B0  
                         l1878 17FC                           l1886 1816                           l2790 160A  
                         l2782 15D8                           l2694 29AA                           l2686 2978  
                         l2678 2944                           l2598 2756                           l2766 1ACC  
                         l2758 1AAC                           l2870 1F7A                           l2862 1F38  
                         l2854 1EF8                           l2950 220E                           l2942 21D4  
                         l2936 1D44                           l2928 1D20                           l2848 13C8  
                         l1888 1826                           l1896 1846                           l2784 15E6  
                         l2776 15B6                           l2696 29D8                           l2688 298A  
                         l2768 1ADC                           l2792 2380                           l2880 2008  
                         l2872 1F8A                           l2864 1F48                           l2856 1F0A  
                         l2952 221E                           l2944 21E4                           l2960 225A  
                         l2938 1D56                           l2890 1C16                           l2786 15FC  
                         l2778 15C8                           l2794 2390                           l2882 2028  
                         l2866 1F4A                           l2858 1F0E                           l2970 2292  
                         l2962 226A                           l2954 2244                           l2946 21EE  
                         l2892 1C26                           l2788 1604                           l2796 239E  
                         l2884 203A                           l2876 1F90                           l2868 1F68  
                         l2980 22FE                           l2972 22AC                           l2964 226E  
                         l2956 224C                           l2948 21FE                           l2894 1C3E  
                         l2798 23E4                           l2886 203E                           l2878 1FE8  
                         l2990 2332                           l2982 2302                           l2974 22B2  
                         l2966 2272                           l2896 1C4E                           l2888 2040  
                         l2992 233A                           l2984 2312                           l2976 22C2  
                         l2968 2282                           l2898 1C62                           l2986 2324  
                         l2978 22D4                           l2988 2328                           l2996 2342  
                         l2998 234E                           _ADFM 7E07                           _ADON 7E10  
                         STR_1 2FD2                           STR_2 2F28                           STR_3 2F7D  
                         STR_4 2FE3                           STR_5 2F17                           STR_6 2F17  
                         STR_7 2F39                           STR_8 2F5B                           STR_9 2F28  
                         _BRGH 7D62                           _CREN 7D5C                           u2000 1F7A  
                         u2001 1F76                           u2010 1F8A                           u2011 1F86  
                         u2100 1D14                           u2020 203A                           u2101 1D10  
                         u2021 2036                           u1310 14CC                           u2110 1D36  
                         u2030 1C26                           u1311 14C8                           u2111 1D32  
                         u2031 1C22                           u2120 1D56                           u2040 1C4E  
                         u1320 1870                           u1400 1D7C                           u2200 2324  
                         u1305 14AC                           u2121 1D52                           u2041 1C4A  
                         u1321 186C                           u1401 1D78                           u2201 2320  
                         u1330 164C                           u2050 1CA4                           u2210 254E  
                         u1410 1DCE                           u2130 21E4                           u2051 1CA0  
                         u2211 254A                           u1411 1DCA                           u2131 21E0  
                         u1340 1674                           u2060 1CB4                           u2220 25BC  
                         u2300 2D5A                           u1420 1DEE                           u1500 20EE  
                         u2140 2244                           u2061 1CB0                           u2221 25B8  
                         u2301 2D56                           u1421 1DEA                           u1501 20EA  
                         u2141 2240                           u1350 1684                           u2070 1CCC  
                         u2230 262E                           u2310 2D78                           u1430 1E0E  
                         u1510 217E                           u2150 226A                           u1351 1680  
                         u2071 1CC8                           u2231 262A                           u2311 2D74  
                         u1431 1E0A                           u1511 217A                           u2151 2266  
                         u2080 1CEC                           u1280 1308                           u2240 26D6  
                         u2320 2D90                           u1600 281E                           u1360 1510  
                         u1440 1E22                           u1520 21D2                           u2160 2292  
                         u1337 1642                           u2081 1CE8                           u1281 1304  
                         u2241 26D2                           u2321 2D8C                           u1601 281A  
                         u1361 150C                           u1441 1E1E                           u1521 21CE  
                         u2161 228E                           u1290 14AA                           u2090 1CFC  
                         u1530 1496                           u2250 272C                           u1370 177A  
                         u2330 2E7C                           u1610 285E                           u1450 1E56  
                         u2170 22AC                           u1291 14A4                           u1347 166A  
                         u2091 1CF8                           u1531 1492                           u2251 2728  
                         u1371 1776                           u2331 2E78                           u1611 285A  
                         u1451 1E52                           u2171 22A8                           u2260 1738  
                         u1380 1798                           u2340 2EA2                           u1700 29D8  
                         u1620 28D4                           u1540 2756                           u1460 1538  
                         u2180 22D4                           u2261 1734                           u1381 1794  
                         u2341 2E9E                           u1701 29D4                           u1621 28D0  
                         u1541 2752                           u1461 1534                           u2181 22D0  
                         u1390 17B4                           u2350 2ECA                           u2270 2AE6  
                         u1710 29EE                           u1630 28F6                           u1550 2768  
                         u1470 2078                           u2190 22FE                           u2407 19D6  
                         u1391 17B0                           u2351 2EC6                           u2271 2AE2  
                         u1711 29EA                           u1631 28F2                           u1551 2764  
                         u1471 2074                           u2191 22FA                           u2280 2CE0  
                         u1720 2A02                           u1640 2920                           u1560 2778  
                         u1800 1A94                           u1480 208C                           u2417 19EC  
                         u2281 2CDC                           u1721 29FE                           u1641 291C  
                         u1561 2774                           u1801 1A90                           u1481 2088  
                         u2290 2D3C                           u1730 2A1C                           u1650 2944  
                         u1570 27BC                           u1810 1ABC                           u1490 20DA  
                         u2427 1A00                           u2291 2D38                           u1731 2A18  
                         u1651 2940                           u1571 27B8                           u1811 1AB8  
                         u1491 20D6                           u1740 2A64                           u1660 295A  
                         u1580 27CE                           u1820 1ADC                           u1900 2450  
                         u1741 2A60                           u1661 2956                           u1581 27CA  
                         u1821 1AD8                           u1901 244C                           u1750 2A94  
                         u1670 2978                           u1590 27DE                           u1830 1AEC  
                         u1910 249A                           u2367 1972                           u1751 2A90  
                         u1671 2974                           u1591 27DA                           u1831 1AE8  
                         u1911 2496                           u1840 15C8                           u1760 2AC2  
                         u1680 2998                           u1920 24B8                           u2377 198C  
                         u1841 15C4                           u1761 2ABE                           u1681 2994  
                         u1921 24B4                           u1850 15E6                           u1690 29AA  
                         u1770 1A1E                           u1930 24C8                           u2387 19A2  
                         u1851 15E2                           u1691 29A6                           u1771 1A1A  
                         u1931 24C4                           u1860 15FC                           u1780 1A52  
                         u1940 24D6                           u2397 19C4                           u1861 15F8  
                         u1941 24D2                           u1790 1A80                           u1950 2510  
                         u1870 2390                           u1791 1A7C                           u1951 250C  
                         u1871 238C                           u1960 251E                           u1880 239E  
                         u1785 1A48                           u1961 251A                           u1881 239A  
                         u1890 23FA                           u1970 1F0A                           u1891 23F6  
                         u1971 1F06                           u1980 1F38                           u1981 1F34  
                         u1990 1F48                           u1991 1F44                           _RCIF 7CF5  
                         _RCEN 7E2B                           _RBPU 7F8F                           _SPEN 7D5F  
                         _RSEN 7E29                           _TXIF 7CF4                           _TXEN 7D65  
                         _SYNC 7D64                           _data 0100                           _flag 005B  
                         _main 18CE                           _menu 0060                           _time 00BE  
                         fsr0h 0FEA                           indf0 0FEF                           fsr2h 0FDA  
                         fsr0l 0FE9                           indf2 0FDF                           fsr1l 0FE1  
                         fsr2l 0FD9                           _puts 1462                           prodh 0FF4  
                         prodl 0FF3                           start 0000                ___fldiv@new_exp 0027  
         ??_init_matrix_keypad 0001                   ___param_bank 0000                 clcd_write@byte 0002  
                _i2c_rep_start 12CA                  ??_i2c_rx_mode 0001                   ?_init_ds1307 0001  
                 ?_event_store 000C                  ___fltol@sign1 0037                          _ADCS0 7E00  
                        _ADCS1 7E01                          _ADCS2 7E02                          ?_main 0001  
                 ?_read_ds1307 0001                          _ACKEN 7E2C                          _ACKDT 7E2D  
               ??_display_time 0006                          _BCLIF 7D0B                __end_of___fldiv 2AD6  
                        _ACQT0 7E03                          _ACQT1 7E04                          _ACQT2 7E05  
                        STR_10 2F8E                          STR_11 2F05                          STR_12 2FF4  
                        STR_20 2F6C                          STR_21 2FC1                          STR_13 2EE1  
                        STR_14 2F24                          STR_22 2FFB                          STR_23 2FFB  
                        STR_15 2F21                          STR_24 2FFB                          STR_16 2F1B  
                        _BRG16 7DC3                          STR_17 2F9F                          STR_18 2FB0  
                        STR_19 2F4A                __end_of___fltol 1B0E                          ?_puts 0002  
              __end_of___lwdiv 17D4                __end_of___lwmod 161A                   ?_init_config 0001  
                        _VCFG0 7E0C                          _VCFG1 7E0D                          _RCREG 0FAE  
                        _SENDB 7D63                          _SPBRG 0FAF                          _PORTB 0F81  
                        _PORTD 0F83                          _TRISB 0F93                          _TRISC 0F94  
                        _TRISD 0F95                          _SSPIF 7CF3                          _TXREG 0FAD  
       ?_write_external_EEPROM 0008                          _flag1 0054                          _delay 0042  
                        _gears 00A0                          _state 0058                          _putch 1360  
                        tablat 0FF5                          puts@s 0002                          status 0FD8  
             init_ds1307@dummy 0004                     _i2c_no_ack 12BC                __initialization 1686  
               ?_i2c_rep_start 0001                   __end_of_main 1960         ??_read_external_EEPROM 0002  
                 __end_of_puts 1498               __end_of_i2c_idle 130C            set_time@blink_delay 0051  
             __end_of_i2c_read 12EE               __end_of_i2c_stop 12E2                  ?_download_log 0001  
                       ??_main 003A                         ??_puts 0004                  __activetblptr 0002  
          __end_of_i2c_rx_mode 12CA                  ?_event_reader 0001                         _ADCON0 0FC2  
                       _ADCON1 0FC1               read_switches@key 004F                         _ADRESH 0FC4  
                       _ADRESL 0FC3                         ?_putch 0001                         _GODONE 7E11  
       write_external_EEPROM@i 0009                   _write_ds1307 1392                         _SSPADD 0FC8  
                       _TRISC3 7CA3                         _TRISC4 7CA4                         _TRISC6 7CA6  
                       _TRISC7 7CA7                         _TRISD7 7CAF                         _SSPBUF 0FC9  
             __end_of___xxtofl 2532    read_external_EEPROM@address 0002               __end_of_get_time 18CE  
                    ??___fldiv 001E                      ??___fltol 0033                         _flagER 005A  
                    ??___lwdiv 0005                      ??___lwmod 0005               __end_of_init_i2c 1348  
             __end_of_init_adc 13EE               __end_of_read_adc 1558                         clear_0 16CA  
                       clear_1 16D6                         clear_2 16E2                 ??_download_log 0006  
                view_log@delay 0010                         isa$std 0001               __end_of_scan_key 1C16  
                view_log@index 004B                 ??_event_reader 0004                   __pdataCOMRAM 0059  
             __end_of_set_time 2EE0                   __mediumconst 2EE0                         tblptrh 0FF7  
                       tblptrl 0FF6                         tblptru 0FF8               __end_of_view_log 237E  
              event_store@gear 000D                   ___xxtofl@arg 0012                   ___xxtofl@exp 0011  
                 ___xxtofl@val 0008                event_store@time 000C                     __accesstop 0060  
      __end_of__initialization 16E8           __end_of_display_time 1332                  ___rparam_used 0001  
                   ___fltol@f1 002F                ??_i2c_rep_start 0001                    ?_i2c_no_ack 0001  
               __pcstackCOMRAM 0001                   __pidataBANK0 1558                    _i2c_rx_mode 12C2  
                __end_of_putch 1378              __end_of_i2c_start 12DA              __end_of_i2c_write 12FA  
             ??_view_dashboard 0039                        ??_putch 0001                     __pbssBANK0 00BE  
                   __pbssBANK1 0100                      ?_i2c_idle 0001                      ?_i2c_read 0001  
                    ?_i2c_stop 0001                     _clcd_print 161A                     _clcd_putch 1348  
                   _clcd_write 1498                read_ds1307@data 0003                     _gear_index 0055  
            read_switches@once 0059                        _ACKSTAT 7E2E        ??_write_external_EEPROM 0009  
                    ?___xxtofl 0008                        _SSPCON1 0FC6                      ?_get_time 0001  
                _read_switches 17D4                     ??_i2c_idle 0001                     ??_i2c_read 0001  
                   ??_i2c_stop 0001                      ?_init_i2c 0001           __end_of_download_log 273C  
                    ?_init_adc 0001                      ?_read_adc 0001              __end_of_clear_log 1760  
                    ?_scan_key 0001           __end_of_event_reader 21D4                        __Hparam 0000  
                      __Lparam 0000                      ?_set_time 0001                   event_store@i 0013  
                 event_store@j 0015                        ___fldiv 273C                      ?_view_log 0001  
                      ___fltol 1A08                        ___lwdiv 1760                        ___lwmod 15B6  
                      _address 0053                        __pcinit 1686               set_time@new_time 003C  
                      __ramtop 0600                        __ptext0 18CE                        __ptext1 21D4  
                      __ptext2 204C                        __ptext3 1ECC                        __ptext4 1512  
                      __ptext5 1D6A                        __ptext6 14D2                        __ptext7 131E  
                      __ptext8 237E                        __ptext9 1A08                     _menu_index 0056  
            __end_of_init_clcd 1A08                     ??___xxtofl 000C              __end_of_init_uart 140E  
               ?_read_switches 0001                     ??_get_time 0004           end_of_initialization 16E8  
                   ??_init_i2c 0001                     ??_init_adc 0001                  __Lmediumconst 2EE0  
                   ??_read_adc 0003       read_external_EEPROM@data 0003                     ??_scan_key 0001  
                  ?_clcd_print 0003                    ?_clcd_putch 0008                    ?_clcd_write 0001  
                   ??_set_time 000A                        postdec1 0FE5                        postdec2 0FDD  
                      postinc0 0FEE                        postinc2 0FDE                     ??_view_log 000D  
                    _PORTBbits 0F81                read_adc@channel 0007               event_store@i_195 0017  
     event_reader@read_address 0008                   _display_time 131E                  i2c_write@data 0001  
                ___xxtofl@sign 0010               event_store@speed 000E                read_adc@reg_val 0005  
                  ___fldiv@grs 0029                    ___fldiv@rem 0022                   ??_i2c_no_ack 0001  
                 ?_i2c_rx_mode 0001                  __pidataCOMRAM 12B9                    _adc_reg_val 004D  
          start_initialization 1686                ??_read_switches 0001                      _i2c_start 12D2  
                    _i2c_write 12EE             __end_of_i2c_no_ack 12C2                 set_time@delay1 000C  
               set_time@buffer 0010          __end_of_i2c_rep_start 12D2                  ??_init_ds1307 0004  
                  __pdataBANK0 0060                  ??_event_store 0010                  ??_read_ds1307 0002  
                 _download_log 2532    read_switches@detection_type 0001                  ??_init_config 0005  
                    ___fldiv@a 001A                      ___fldiv@b 0016                   _event_reader 204C  
                  __pbssCOMRAM 003C  __end_of_write_external_EEPROM 1512                     ?_i2c_start 0001  
                   ?_i2c_write 0001         download_log@delay1_228 0018               ___lwdiv@dividend 0001  
                    _clear_log 16F2                  __pmediumconst 2EE0                       ?___fldiv 0016  
                     ?___fltol 002F             read_ds1307@address 0002                       ?___lwdiv 0001  
                    _clock_reg 0046                       ?___lwmod 0001            __end_of_init_ds1307 1392  
          __end_of_event_store 1ECC            __end_of_read_ds1307 1462              _display_main_menu 1C16  
             ___lwdiv@quotient 0005                      _init_clcd 1960            __end_of_init_config 13CE  
                    _init_uart 13EE             ?_display_main_menu 0001                  ?_write_ds1307 0002  
                 ??_clcd_print 0006                   ??_clcd_putch 0009     __end_of_init_matrix_keypad 131E  
                 ??_clcd_write 0002            ??_display_main_menu 000A                     ?_clear_log 0001  
                 _no_of_events 0052                  download_log@i 001F          clcd_write@control_bit 0001  
    __end_of_display_main_menu 1D6A                    ??_i2c_start 0001             __end_of_clcd_print 1686  
                  ??_i2c_write 0001             __end_of_clcd_putch 1360             __end_of_clcd_write 14D2  
                   ?_init_clcd 0001                     ?_init_uart 0001                      copy_data0 169A  
               ??_write_ds1307 0003   __end_of_read_external_EEPROM 1438                       _i2c_idle 12FA  
                     _i2c_read 12E2                       _i2c_stop 12DA                  event_reader@i 0009  
                event_reader@j 000B              set_time@blink_pos 0049                       __Hrparam 0000  
                     __Lrparam 0000   write_external_EEPROM@address 000B                    _init_ds1307 1378  
                  _event_store 1D6A                    _read_ds1307 1438                    _init_config 13B0  
                     ___xxtofl 237E            write_ds1307@address 0003                ___lwdiv@divisor 0003  
              ___lwdiv@counter 0007                       __ptext10 273C                       __ptext11 2AD6  
                     __ptext20 1332                       __ptext12 184A                       __ptext21 1378  
                     __ptext13 15B6                       __ptext30 12D2                       __ptext22 1392  
                     __ptext14 1760                       __ptext31 12CA                       __ptext23 1438  
                     __ptext15 17D4                       __ptext40 16F2                       __ptext32 12E2  
                     __ptext24 1960                       __ptext16 1B0E                       __ptext41 161A  
                     __ptext33 12C2                       __ptext25 13CE                       __ptext17 13B0  
                     __ptext42 1498                       __ptext34 12FA                       __ptext26 2532  
                     __ptext18 13EE                       __ptext35 12BC                       __ptext27 140E  
                     __ptext19 130C                       __ptext36 1462                       __ptext28 12EE  
                     __ptext37 1360                       __ptext29 12DA                       __ptext38 1C16  
                     __ptext39 1348                       _get_time 184A                       _init_i2c 1332  
                     _init_adc 13CE                       _read_adc 1512                       _scan_key 1B0E  
                  ??_clear_log 0006                       _set_time 2AD6                       isa$xinst 0000  
                     _view_log 21D4                      putch@byte 0001                   set_time@once 0050  
                  ??_init_clcd 0003          __end_of_read_switches 184A                    ??_init_uart 0001  
               _view_dashboard 1ECC               ___lwmod@dividend 0001            event_store@address1 0010  
          event_store@address2 0011           __end_of_write_ds1307 13B0           _read_external_EEPROM 140E  
              ___lwmod@divisor 0003                ___lwmod@counter 0005         __end_of_view_dashboard 204C  
        _write_external_EEPROM 14D2             event_store@data_ew 0012             download_log@delay1 0014  
             write_ds1307@data 0002              download_log@index 001D                download_log@add 001C  
              download_log@log 0009  
